	.file	"add.bc"
	.file	1 "add.c"
	.text
.Ltext_begin:
	.data
	.text
	.globl	adds32
	.align	16, 0x90
	.type	adds32,@function
adds32:                                 # @adds32
	.cfi_startproc
.Lfunc_begin0:
	.loc	1 2 0                   # add.c:2:0
# BB#0:                                 # %entry
	pushq	%rbp
.Ltmp3:
	.cfi_def_cfa_offset 16
	pushq	%rbx
.Ltmp4:
	.cfi_def_cfa_offset 24
	pushq	%rax
.Ltmp5:
	.cfi_def_cfa_offset 32
.Ltmp6:
	.cfi_offset %rbx, -24
.Ltmp7:
	.cfi_offset %rbp, -16
	movl	%esi, %ebx
	movl	%edi, %ebp
	.loc	1 5 2 prologue_end      # add.c:5:2
.Ltmp8:
	callq	trap.sadd.i32
	leal	(%rbp,%rbx), %eax
	addq	$8, %rsp
	popq	%rbx
	popq	%rbp
	ret
.Ltmp9:
.Ltmp10:
	.size	adds32, .Ltmp10-adds32
.Lfunc_end0:
	.cfi_endproc

	.globl	addu64
	.align	16, 0x90
	.type	addu64,@function
addu64:                                 # @addu64
	.cfi_startproc
.Lfunc_begin1:
	.loc	1 9 0                   # add.c:9:0
# BB#0:                                 # %entry
	pushq	%r14
.Ltmp14:
	.cfi_def_cfa_offset 16
	pushq	%rbx
.Ltmp15:
	.cfi_def_cfa_offset 24
	pushq	%rax
.Ltmp16:
	.cfi_def_cfa_offset 32
.Ltmp17:
	.cfi_offset %rbx, -24
.Ltmp18:
	.cfi_offset %r14, -16
	movq	%rsi, %r14
	movq	%rdi, %rbx
	.loc	1 12 2 prologue_end     # add.c:12:2
.Ltmp19:
	callq	trap.uadd.i64
	leaq	(%rbx,%r14), %rax
	addq	$8, %rsp
	popq	%rbx
	popq	%r14
	ret
.Ltmp20:
.Ltmp21:
	.size	addu64, .Ltmp21-addu64
.Lfunc_end1:
	.cfi_endproc

.Ltext_end:
	.data
.Ldata_end:
	.text
.Lsection_end1:
	.section	".note.GNU-stack","",@progbits
