; ModuleID = 'LeakTracer.bc'
target datalayout = "e-p:64:64:64-i1:8:8-i8:8:8-i16:16:16-i32:32:32-i64:64:64-f32:32:32-f64:64:64-v64:64:64-v128:128:128-a0:0:64-s0:64:64-f80:128:128-n8:16:32:64-S128"
target triple = "x86_64-unknown-linux-gnu"

%class.LeakTracer = type { i32, i32, i32, i32, i32, i64, i32, i8, i8, %struct._IO_FILE*, %"struct.LeakTracer::Leak"*, i32* }
%struct._IO_FILE = type { i32, i8*, i8*, i8*, i8*, i8*, i8*, i8*, i8*, i8*, i8*, i8*, %struct._IO_marker*, %struct._IO_FILE*, i32, i32, i64, i16, i8, [1 x i8], i8*, i64, i8*, i8*, i8*, i8*, i64, i32, [20 x i8] }
%struct._IO_marker = type { %struct._IO_marker*, %struct._IO_FILE*, i32 }
%"struct.LeakTracer::Leak" = type { i8*, i64, i8*, i8, i32 }
%struct.stat = type { i64, i64, i64, i32, i32, i32, i32, i64, i64, i64, i64, %struct.timespec, %struct.timespec, %struct.timespec, [3 x i64] }
%struct.timespec = type { i64, i64 }

@_ZL10leakTracer = internal global %class.LeakTracer zeroinitializer, align 8
@__dso_handle = external global i8
@.str = private unnamed_addr constant [36 x i8] c"id:struct.LeakTracer.destroyed.Bool\00", section "llvm.metadata"
@.str1 = private unnamed_addr constant [14 x i8] c"LeakTracer.cc\00", section "llvm.metadata"
@stderr = external global %struct._IO_FILE*
@.str2 = private unnamed_addr constant [70 x i8] c"Oops, registerAlloc called after destruction of LeakTracer (size=%d)\0A\00", align 1
@.str3 = private unnamed_addr constant [22 x i8] c"LeakTracer malloc %m\0A\00", align 1
@.str4 = private unnamed_addr constant [5 x i8] c"\AA\BB\CC\DD\00", align 1
@.str5 = private unnamed_addr constant [34 x i8] c"id:struct.LeakTracer.newCount.Int\00", section "llvm.metadata"
@.str6 = private unnamed_addr constant [44 x i8] c"id:struct.LeakTracer.totalAllocations.ULong\00", section "llvm.metadata"
@.str7 = private unnamed_addr constant [42 x i8] c"id:struct.LeakTracer.currentAllocated.Int\00", section "llvm.metadata"
@.str8 = private unnamed_addr constant [38 x i8] c"id:struct.LeakTracer.maxAllocated.Int\00", section "llvm.metadata"
@.str9 = private unnamed_addr constant [39 x i8] c"id:struct.LeakTracer.firstFreeSpot.Int\00", section "llvm.metadata"
@.str10 = private unnamed_addr constant [36 x i8] c"id:struct.LeakTracer.leaksCount.Int\00", section "llvm.metadata"
@.str11 = private unnamed_addr constant [10 x i8] c"index.i32\00", align 1
@.str12 = private unnamed_addr constant [26 x i8] c"id:struct.Leak.size.ULong\00", section "llvm.metadata"
@.str13 = private unnamed_addr constant [25 x i8] c"id:struct.Leak.type.Bool\00", section "llvm.metadata"
@.str14 = private unnamed_addr constant [10 x i8] c"index.i64\00", align 1
@.str15 = private unnamed_addr constant [30 x i8] c"id:struct.Leak.nextBucket.Int\00", section "llvm.metadata"
@.str16 = private unnamed_addr constant [33 x i8] c"# LeakTracer realloc failed: %m\0A\00", align 1
@.str17 = private unnamed_addr constant [26 x i8] c"# internal buffer now %d\0A\00", align 1
@.str18 = private unnamed_addr constant [3 x i8] c"# \00", align 1
@.str19 = private unnamed_addr constant [6 x i8] c"%02x \00", align 1
@.str20 = private unnamed_addr constant [3 x i8] c"  \00", align 1
@.str21 = private unnamed_addr constant [3 x i8] c"%c\00", align 1
@.str22 = private unnamed_addr constant [4 x i8] c"\0A# \00", align 1
@.str23 = private unnamed_addr constant [2 x i8] c"\0A\00", align 1
@.str24 = private unnamed_addr constant [51 x i8] c"Oops, allocation destruction of LeakTracer (p=%p)\0A\00", align 1
@.str25 = private unnamed_addr constant [45 x i8] c"S %10p %10p  # new%s but delete%s ; size %d\0A\00", align 1
@.str26 = private unnamed_addr constant [3 x i8] c"[]\00", align 1
@.str27 = private unnamed_addr constant [8 x i8] c" normal\00", align 1
@.str28 = private unnamed_addr constant [61 x i8] c"O %10p %10p  # memory overwritten beyond allocated %d bytes\0A\00", align 1
@.str29 = private unnamed_addr constant [24 x i8] c"# %d byte beyond area:\0A\00", align 1
@.str30 = private unnamed_addr constant [61 x i8] c"D %10p             # delete non alloc or twice pointer %10p\0A\00", align 1
@.str31 = private unnamed_addr constant [14 x i8] c"# LeakReport\0A\00", align 1
@.str32 = private unnamed_addr constant [30 x i8] c"# %10s | %9s  # Pointer Addr\0A\00", align 1
@.str33 = private unnamed_addr constant [11 x i8] c"from new @\00", align 1
@.str34 = private unnamed_addr constant [5 x i8] c"size\00", align 1
@.str35 = private unnamed_addr constant [21 x i8] c"L %10p   %9ld  # %p\0A\00", align 1
@.str36 = private unnamed_addr constant [61 x i8] c"# total allocation requests: %6ld ; max. mem used %d kBytes\0A\00", align 1
@.str37 = private unnamed_addr constant [23 x i8] c"# leak %6d Bytes\09:-%c\0A\00", align 1
@.str38 = private unnamed_addr constant [34 x i8] c"# .. that is %d kByte!! A lot ..\0A\00", align 1
@_ZZ6mallocE4fptr = internal global i8* (i64)* null, align 8
@.str39 = private unnamed_addr constant [7 x i8] c"malloc\00", align 1
@.str40 = private unnamed_addr constant [18 x i8] c"malloc get error\0A\00", align 1
@.str41 = private unnamed_addr constant [27 x i8] c"malloc called , size = %d\0A\00", align 1
@_ZZ4readE6readfn = internal global i64 (i32, i8*, i64)* null, align 8
@.str42 = private unnamed_addr constant [5 x i8] c"read\00", align 1
@.str43 = private unnamed_addr constant [16 x i8] c"read get error\0A\00", align 1
@.str44 = private unnamed_addr constant [44 x i8] c"read called ,buf = %x, size = %d, ret = %d\0A\00", align 1
@.str45 = private unnamed_addr constant [34 x i8] c"id:struct.LeakTracer.abortOn.UInt\00", section "llvm.metadata"
@.str46 = private unnamed_addr constant [32 x i8] c"# abort; DUMP of current state\0A\00", align 1
@.str47 = private unnamed_addr constant [29 x i8] c"LeakTracer aborting program\0A\00", align 1
@.str48 = private unnamed_addr constant [38 x i8] c"id:struct.LeakTracer.initialized.Bool\00", section "llvm.metadata"
@.str49 = private unnamed_addr constant [15 x i8] c"LEAKTRACE_FILE\00", align 1
@.str50 = private unnamed_addr constant [9 x i8] c"leak.out\00", align 1
@.str51 = private unnamed_addr constant [6 x i8] c"%s.%d\00", align 1
@.str52 = private unnamed_addr constant [43 x i8] c"LeakTracer: file exists; using %s instead\0A\00", align 1
@.str53 = private unnamed_addr constant [3 x i8] c"%s\00", align 1
@.str54 = private unnamed_addr constant [32 x i8] c"LeakTracer: cannot open %s: %m\0A\00", align 1
@.str55 = private unnamed_addr constant [2 x i8] c"w\00", align 1
@.str56 = private unnamed_addr constant [14 x i8] c"# starting %s\00", align 1
@.str57 = private unnamed_addr constant [41 x i8] c"# memory overrun protection of %d Bytes\0A\00", align 1
@.str58 = private unnamed_addr constant [38 x i8] c"# initializing new memory with 0x%2X\0A\00", align 1
@.str59 = private unnamed_addr constant [38 x i8] c"# sweeping deleted memory with 0x%2X\0A\00", align 1
@.str60 = private unnamed_addr constant [15 x i8] c"LT_ABORTREASON\00", align 1
@.str61 = private unnamed_addr constant [13 x i8] c"# aborts on \00", align 1
@.str62 = private unnamed_addr constant [4 x i8] c"%s \00", align 1
@.str63 = private unnamed_addr constant [17 x i8] c"OVERWRITE_MEMORY\00", align 1
@.str64 = private unnamed_addr constant [19 x i8] c"DELETE_NONEXISTENT\00", align 1
@.str65 = private unnamed_addr constant [20 x i8] c"NEW_DELETE_MISMATCH\00", align 1
@.str66 = private unnamed_addr constant [69 x i8] c"# not thread save; if you use threads, recompile with -DTHREAD_SAVE\0A\00", align 1
@.str67 = private unnamed_addr constant [14 x i8] c"# finished %s\00", align 1
@llvm.global_ctors = appending global [1 x { i32, void ()* }] [{ i32, void ()* } { i32 65535, void ()* @_GLOBAL__I_a }]

define internal void @__cxx_global_var_init() section ".text.startup" {
entry:
  call void @_ZN10LeakTracerC1Ev(%class.LeakTracer* @_ZL10leakTracer)
  %tmp = call i32 @__cxa_atexit(void (i8*)* bitcast (void (%class.LeakTracer*)* @_ZN10LeakTracerD1Ev to void (i8*)*), i8* bitcast (%class.LeakTracer* @_ZL10leakTracer to i8*), i8* @__dso_handle)
  ret void
}

define linkonce_odr void @_ZN10LeakTracerC1Ev(%class.LeakTracer* %this) unnamed_addr uwtable align 2 {
entry:
  call void @_ZN10LeakTracerC2Ev(%class.LeakTracer* %this), !dbg !192
  ret void, !dbg !192
}

define linkonce_odr void @_ZN10LeakTracerD1Ev(%class.LeakTracer* %this) unnamed_addr uwtable align 2 {
entry:
  call void @_ZN10LeakTracerD2Ev(%class.LeakTracer* %this), !dbg !193
  ret void, !dbg !194
}

declare i32 @__cxa_atexit(void (i8*)*, i8*, i8*) nounwind

define i8* @_ZN10LeakTracer13registerAllocEmb(%class.LeakTracer* %this, i64 %size, i1 zeroext %type) uwtable align 2 {
entry:
  %tmp = bitcast %class.LeakTracer* %this to i32*
  call void @_ZN10LeakTracer10initializeEv(%class.LeakTracer* %this), !dbg !195
  %destroyed = getelementptr inbounds %class.LeakTracer* %this, i32 0, i32 8, !dbg !197
  %tmp87 = load i8* %destroyed, align 1, !dbg !197, !id !198
  %tobool = trunc i8 %tmp87 to i1, !dbg !197
  %tmp88 = load %struct._IO_FILE** @stderr, align 8, !dbg !199
  br i1 %tobool, label %if.then.split, label %if.end.split, !dbg !197

if.then.split:                                    ; preds = %entry
  %call = call i32 (%struct._IO_FILE*, i8*, ...)* @fprintf(%struct._IO_FILE* %tmp88, i8* getelementptr inbounds ([70 x i8]* @.str2, i32 0, i32 0), i64 %size), !dbg !199
  %call2 = call noalias i8* @malloc(i64 %size) nounwind, !dbg !201
  br label %return, !dbg !201

if.end.split:                                     ; preds = %entry
  call void @trap.uadd.i64(i64 %size, i64 4), !dbg !202
  %add = add i64 %size, 4, !dbg !202
  %call3 = call noalias i8* @malloc(i64 %add) nounwind, !dbg !202
  %tobool4 = icmp ne i8* %call3, null, !dbg !203
  %report78 = getelementptr %class.LeakTracer* %this, i64 0, i32 9
  %tmp89 = load %struct._IO_FILE** %report78, align 8, !dbg !204
  %tmp90 = load i32* %tmp, align 4, !dbg !206, !id !207
  %tmp91 = getelementptr %class.LeakTracer* %this, i64 0, i32 5
  %tmp92 = load i64* %tmp91, align 8, !dbg !208, !id !209
  %tmp93 = getelementptr %class.LeakTracer* %this, i64 0, i32 3
  %tmp94 = load i32* %tmp93, align 4, !dbg !210, !id !211
  %tmp95 = getelementptr %class.LeakTracer* %this, i64 0, i32 4
  %tmp96 = load i32* %tmp95, align 4, !dbg !212, !id !213
  br i1 %tobool4, label %if.end7, label %if.then5, !dbg !203

if.then5:                                         ; preds = %if.end.split
  %report = getelementptr inbounds %class.LeakTracer* %this, i32 0, i32 9, !dbg !204
  %call6 = call i32 (%struct._IO_FILE*, i8*, ...)* @fprintf(%struct._IO_FILE* %tmp89, i8* getelementptr inbounds ([22 x i8]* @.str3, i32 0, i32 0)), !dbg !204
  call void @_exit(i32 1) noreturn, !dbg !214
  unreachable, !dbg !214

if.end7:                                          ; preds = %if.end.split
  %frombool = zext i1 %type to i8
  call void @llvm.memset.p0i8.i64(i8* %call3, i8 -86, i64 %add, i32 1, i1 false), !dbg !215
  %add.ptr = getelementptr inbounds i8* %call3, i64 %size, !dbg !216
  call void @llvm.memcpy.p0i8.p0i8.i64(i8* %add.ptr, i8* getelementptr inbounds ([5 x i8]* @.str4, i32 0, i32 0), i64 4, i32 1, i1 false), !dbg !216
  %newCount = getelementptr inbounds %class.LeakTracer* %this, i32 0, i32 0, !dbg !206
  %tmp97 = bitcast i32* %newCount to i8*, !dbg !206
  %tmp98 = bitcast i8* %tmp97 to i32*, !dbg !206
  %inc = add nsw i32 %tmp90, 1, !dbg !206, !ovf !217
  store i32 %inc, i32* %tmp98, align 4, !dbg !206, !id !207
  %totalAllocations = getelementptr inbounds %class.LeakTracer* %this, i32 0, i32 5, !dbg !208
  %tmp99 = bitcast i64* %totalAllocations to i8*, !dbg !208
  %tmp100 = bitcast i8* %tmp99 to i64*, !dbg !208
  %inc9 = add i64 %tmp92, 1, !dbg !208, !ovf !217
  store i64 %inc9, i64* %tmp100, align 8, !dbg !208, !id !209
  %currentAllocated = getelementptr inbounds %class.LeakTracer* %this, i32 0, i32 3, !dbg !210
  %tmp101 = bitcast i32* %currentAllocated to i8*, !dbg !210
  %tmp102 = bitcast i8* %tmp101 to i32*, !dbg !210
  %conv = sext i32 %tmp94 to i64, !dbg !210
  call void @trap.uadd.i64(i64 %conv, i64 %size), !dbg !210
  %add10 = add i64 %conv, %size, !dbg !210
  %conv11 = trunc i64 %add10 to i32, !dbg !210
  store i32 %conv11, i32* %tmp102, align 4, !dbg !210, !id !211
  %maxAllocated = getelementptr inbounds %class.LeakTracer* %this, i32 0, i32 4, !dbg !212
  %tmp103 = bitcast i32* %maxAllocated to i8*, !dbg !212
  %tmp104 = bitcast i8* %tmp103 to i32*, !dbg !212
  %cmp = icmp sgt i32 %conv11, %tmp96, !dbg !212
  br i1 %cmp, label %if.then13, label %for.cond, !dbg !212

if.then13:                                        ; preds = %if.end7
  store i32 %conv11, i32* %tmp104, align 4, !dbg !218, !id !213
  br label %for.cond, !dbg !218

for.cond:                                         ; preds = %if.else.split, %if.then13, %if.end7
  %leaks5686 = getelementptr %class.LeakTracer* %this, i64 0, i32 10
  %leaks85 = getelementptr %class.LeakTracer* %this, i64 0, i32 10
  %leakHash84 = getelementptr %class.LeakTracer* %this, i64 0, i32 11
  %leaks83 = getelementptr %class.LeakTracer* %this, i64 0, i32 10
  %leaks82 = getelementptr %class.LeakTracer* %this, i64 0, i32 10
  %leaks81 = getelementptr %class.LeakTracer* %this, i64 0, i32 10
  %leaks80 = getelementptr %class.LeakTracer* %this, i64 0, i32 10
  %tmp105 = getelementptr %class.LeakTracer* %this, i64 0, i32 1
  %firstFreeSpot = getelementptr inbounds %class.LeakTracer* %this, i32 0, i32 2, !dbg !219
  %tmp106 = bitcast i32* %firstFreeSpot to i8*, !dbg !219
  %tmp107 = bitcast i8* %tmp106 to i32*, !dbg !219
  %tmp108 = load i32* %tmp107, align 4, !dbg !219, !id !223
  %tmp109 = load i32* %tmp105, align 4, !dbg !219, !id !224
  %tmp110 = load %"struct.LeakTracer::Leak"** %leaks80, align 8, !dbg !225
  %tmp111 = load %"struct.LeakTracer::Leak"** %leaks81, align 8, !dbg !226
  %tmp112 = load %"struct.LeakTracer::Leak"** %leaks82, align 8, !dbg !228
  %tmp113 = load %"struct.LeakTracer::Leak"** %leaks83, align 8, !dbg !229
  %tmp114 = load i32** %leakHash84, align 8, !dbg !230
  %tmp115 = load %"struct.LeakTracer::Leak"** %leaks85, align 8, !dbg !231
  %tmp116 = load %"struct.LeakTracer::Leak"** %leaks5686, align 8, !dbg !232
  br label %for.cond17, !dbg !219

for.cond17:                                       ; preds = %for.inc.split, %for.cond
  %i.0 = phi i32 [ %tmp108, %for.cond ], [ %inc52, %for.inc.split ]
  %leaksCount = getelementptr inbounds %class.LeakTracer* %this, i32 0, i32 1, !dbg !219
  %tmp117 = bitcast i32* %leaksCount to i8*, !dbg !219
  %tmp118 = bitcast i8* %tmp117 to i32*, !dbg !219
  %cmp18 = icmp slt i32 %i.0, %tmp109, !dbg !219
  br i1 %cmp18, label %for.body.split, label %for.end, !dbg !219

for.body.split:                                   ; preds = %for.cond17
  %call19 = call i32 @_Z19__trap_annotate_i32iPKc(i32 %i.0, i8* getelementptr inbounds ([10 x i8]* @.str11, i32 0, i32 0)) nounwind readonly, !dbg !225
  %idxprom = sext i32 %call19 to i64, !dbg !225
  %leaks = getelementptr inbounds %class.LeakTracer* %this, i32 0, i32 10, !dbg !225
  %arrayidx = getelementptr inbounds %"struct.LeakTracer::Leak"* %tmp110, i64 %idxprom, !dbg !225
  %addr = getelementptr inbounds %"struct.LeakTracer::Leak"* %arrayidx, i32 0, i32 0, !dbg !225
  %tmp119 = load i8** %addr, align 8, !dbg !225
  %cmp20 = icmp eq i8* %tmp119, null, !dbg !225
  br i1 %cmp20, label %if.then21, label %for.inc.split, !dbg !225

if.then21:                                        ; preds = %for.body.split
  store i8* %call3, i8** %addr, align 8, !dbg !233
  %call27 = call i32 @_Z19__trap_annotate_i32iPKc(i32 %i.0, i8* getelementptr inbounds ([10 x i8]* @.str11, i32 0, i32 0)) nounwind readonly, !dbg !226
  %idxprom28 = sext i32 %call27 to i64, !dbg !226
  %arrayidx30 = getelementptr inbounds %"struct.LeakTracer::Leak"* %tmp111, i64 %idxprom28, !dbg !226
  %size31 = getelementptr inbounds %"struct.LeakTracer::Leak"* %arrayidx30, i32 0, i32 1, !dbg !226
  %tmp120 = bitcast i64* %size31 to i8*, !dbg !226
  %tmp121 = bitcast i8* %tmp120 to i64*, !dbg !226
  store i64 %size, i64* %tmp121, align 8, !dbg !226, !id !234
  %tobool32 = trunc i8 %frombool to i1, !dbg !235
  %call33 = call i32 @_Z19__trap_annotate_i32iPKc(i32 %i.0, i8* getelementptr inbounds ([10 x i8]* @.str11, i32 0, i32 0)) nounwind readonly, !dbg !228
  %idxprom34 = sext i32 %call33 to i64, !dbg !228
  %arrayidx36 = getelementptr inbounds %"struct.LeakTracer::Leak"* %tmp112, i64 %idxprom34, !dbg !228
  %type37 = getelementptr inbounds %"struct.LeakTracer::Leak"* %arrayidx36, i32 0, i32 3, !dbg !228
  %frombool38 = zext i1 %tobool32 to i8, !dbg !228
  store i8 %frombool38, i8* %type37, align 1, !dbg !228, !id !236
  %tmp122 = call i8* @llvm.returnaddress(i32 1), !dbg !237
  %call39 = call i32 @_Z19__trap_annotate_i32iPKc(i32 %i.0, i8* getelementptr inbounds ([10 x i8]* @.str11, i32 0, i32 0)) nounwind readonly, !dbg !229
  %idxprom40 = sext i32 %call39 to i64, !dbg !229
  %arrayidx42 = getelementptr inbounds %"struct.LeakTracer::Leak"* %tmp113, i64 %idxprom40, !dbg !229
  %allocAddr = getelementptr inbounds %"struct.LeakTracer::Leak"* %arrayidx42, i32 0, i32 2, !dbg !229
  store i8* %tmp122, i8** %allocAddr, align 8, !dbg !229
  call void @trap.sadd.i32(i32 %i.0, i32 1), !dbg !238
  %add43 = add nsw i32 %i.0, 1, !dbg !238
  store i32 %add43, i32* %tmp107, align 4, !dbg !238, !id !223
  %tmp123 = ptrtoint i8* %call3 to i64, !dbg !230
  %rem = urem i64 %tmp123, 35323, !dbg !230
  %call45 = call i64 @_Z19__trap_annotate_i64lPKc(i64 %rem, i8* getelementptr inbounds ([10 x i8]* @.str14, i32 0, i32 0)) nounwind readonly, !dbg !230
  %leakHash = getelementptr inbounds %class.LeakTracer* %this, i32 0, i32 11, !dbg !230
  %arrayidx46 = getelementptr inbounds i32* %tmp114, i64 %call45, !dbg !230
  %tmp124 = load i32* %arrayidx46, align 4, !dbg !239
  %call47 = call i32 @_Z19__trap_annotate_i32iPKc(i32 %i.0, i8* getelementptr inbounds ([10 x i8]* @.str11, i32 0, i32 0)) nounwind readonly, !dbg !231
  %idxprom48 = sext i32 %call47 to i64, !dbg !231
  %arrayidx50 = getelementptr inbounds %"struct.LeakTracer::Leak"* %tmp115, i64 %idxprom48, !dbg !231
  %nextBucket = getelementptr inbounds %"struct.LeakTracer::Leak"* %arrayidx50, i32 0, i32 4, !dbg !231
  %tmp125 = bitcast i32* %nextBucket to i8*, !dbg !231
  %tmp126 = bitcast i8* %tmp125 to i32*, !dbg !231
  store i32 %tmp124, i32* %tmp126, align 4, !dbg !231, !id !240
  store i32 %i.0, i32* %arrayidx46, align 4, !dbg !241
  br label %return, !dbg !242

for.inc.split:                                    ; preds = %for.body.split
  call void @trap.sadd.i32(i32 %i.0, i32 1), !dbg !243
  %inc52 = add nsw i32 %i.0, 1, !dbg !243
  br label %for.cond17, !dbg !243

for.end:                                          ; preds = %for.cond17
  %cmp54 = icmp eq i32 %tmp109, 0, !dbg !244
  br i1 %cmp54, label %cond.end, label %cond.false.split, !dbg !244

cond.false.split:                                 ; preds = %for.end
  call void @trap.smul.i32(i32 %tmp109, i32 2), !dbg !244
  %mul = mul nsw i32 %tmp109, 2, !dbg !244
  br label %cond.end, !dbg !244

cond.end:                                         ; preds = %cond.false.split, %for.end
  %cond = phi i32 [ %mul, %cond.false.split ], [ 32768, %for.end ], !dbg !244
  %leaks56 = getelementptr inbounds %class.LeakTracer* %this, i32 0, i32 10, !dbg !232
  %tmp127 = bitcast %"struct.LeakTracer::Leak"* %tmp116 to i8*, !dbg !232
  %conv57 = sext i32 %cond to i64, !dbg !232
  call void @trap.umul.i64(i64 32, i64 %conv57), !dbg !232
  %mul58 = mul i64 32, %conv57, !dbg !232
  %call59 = call i8* @realloc(i8* %tmp127, i64 %mul58) nounwind, !dbg !232
  %tmp128 = bitcast i8* %call59 to %"struct.LeakTracer::Leak"*, !dbg !232
  store %"struct.LeakTracer::Leak"* %tmp128, %"struct.LeakTracer::Leak"** %leaks56, align 8, !dbg !232
  %tobool62 = icmp ne %"struct.LeakTracer::Leak"* %tmp128, null, !dbg !245
  %report66 = getelementptr inbounds %class.LeakTracer* %this, i32 0, i32 9, !dbg !246
  %tmp129 = load %struct._IO_FILE** %report66, align 8, !dbg !246
  br i1 %tobool62, label %if.else.split, label %if.then63.split, !dbg !245

if.then63.split:                                  ; preds = %cond.end
  %call65 = call i32 (%struct._IO_FILE*, i8*, ...)* @fprintf(%struct._IO_FILE* %tmp129, i8* getelementptr inbounds ([33 x i8]* @.str16, i32 0, i32 0)), !dbg !248
  call void @_exit(i32 1) noreturn, !dbg !250
  unreachable, !dbg !250

if.else.split:                                    ; preds = %cond.end
  %call67 = call i32 (%struct._IO_FILE*, i8*, ...)* @fprintf(%struct._IO_FILE* %tmp129, i8* getelementptr inbounds ([26 x i8]* @.str17, i32 0, i32 0), i32 %cond), !dbg !246
  %tmp130 = load %struct._IO_FILE** %report66, align 8, !dbg !251
  %call69 = call i32 @fflush(%struct._IO_FILE* %tmp130), !dbg !251
  %tmp131 = load %"struct.LeakTracer::Leak"** %leaks56, align 8, !dbg !252
  %tmp132 = load i32* %tmp118, align 4, !dbg !252, !id !224
  %idx.ext = sext i32 %tmp132 to i64, !dbg !252
  %add.ptr73 = getelementptr inbounds %"struct.LeakTracer::Leak"* %tmp131, i64 %idx.ext, !dbg !252
  %tmp133 = bitcast %"struct.LeakTracer::Leak"* %add.ptr73 to i8*, !dbg !252
  call void @trap.ssub.i32(i32 %cond, i32 %tmp132), !dbg !252
  %sub = sub nsw i32 %cond, %tmp132, !dbg !252
  %conv75 = sext i32 %sub to i64, !dbg !252
  call void @trap.umul.i64(i64 32, i64 %conv75), !dbg !252
  %mul76 = mul i64 32, %conv75, !dbg !252
  call void @llvm.memset.p0i8.i64(i8* %tmp133, i8 0, i64 %mul76, i32 8, i1 false), !dbg !252
  store i32 %cond, i32* %tmp118, align 4, !dbg !253, !id !224
  br label %for.cond, !dbg !254

return:                                           ; preds = %if.then21, %if.then.split
  %retval.0 = phi i8* [ %call2, %if.then.split ], [ %call3, %if.then21 ]
  ret i8* %retval.0, !dbg !255
}

define linkonce_odr void @_ZN10LeakTracer10initializeEv(%class.LeakTracer* %this) uwtable align 2 {
entry:
  %initialized = getelementptr inbounds %class.LeakTracer* %this, i32 0, i32 7, !dbg !256
  %tmp = load i8* %initialized, align 1, !dbg !256, !id !258
  %tobool = trunc i8 %tmp to i1, !dbg !256
  br i1 %tobool, label %return, label %if.end, !dbg !256

if.end:                                           ; preds = %entry
  %uniqFilename = alloca [256 x i8], align 16
  %dummy = alloca %struct.stat, align 8
  %t = alloca i64, align 8
  store i8 1, i8* %initialized, align 1, !dbg !259, !id !258
  %newCount = getelementptr inbounds %class.LeakTracer* %this, i32 0, i32 0, !dbg !260
  %tmp86 = bitcast i32* %newCount to i8*, !dbg !260
  %tmp87 = bitcast i8* %tmp86 to i32*, !dbg !260
  store i32 0, i32* %tmp87, align 4, !dbg !260, !id !207
  %leaksCount = getelementptr inbounds %class.LeakTracer* %this, i32 0, i32 1, !dbg !261
  %tmp88 = bitcast i32* %leaksCount to i8*, !dbg !261
  %tmp89 = bitcast i8* %tmp88 to i32*, !dbg !261
  store i32 0, i32* %tmp89, align 4, !dbg !261, !id !224
  %firstFreeSpot = getelementptr inbounds %class.LeakTracer* %this, i32 0, i32 2, !dbg !262
  %tmp90 = bitcast i32* %firstFreeSpot to i8*, !dbg !262
  %tmp91 = bitcast i8* %tmp90 to i32*, !dbg !262
  store i32 1, i32* %tmp91, align 4, !dbg !262, !id !223
  %currentAllocated = getelementptr inbounds %class.LeakTracer* %this, i32 0, i32 3, !dbg !263
  %tmp92 = bitcast i32* %currentAllocated to i8*, !dbg !263
  %tmp93 = bitcast i8* %tmp92 to i32*, !dbg !263
  store i32 0, i32* %tmp93, align 4, !dbg !263, !id !211
  %maxAllocated = getelementptr inbounds %class.LeakTracer* %this, i32 0, i32 4, !dbg !264
  %tmp94 = bitcast i32* %maxAllocated to i8*, !dbg !264
  %tmp95 = bitcast i8* %tmp94 to i32*, !dbg !264
  store i32 0, i32* %tmp95, align 4, !dbg !264, !id !213
  %totalAllocations = getelementptr inbounds %class.LeakTracer* %this, i32 0, i32 5, !dbg !265
  %tmp96 = bitcast i64* %totalAllocations to i8*, !dbg !265
  %tmp97 = bitcast i8* %tmp96 to i64*, !dbg !265
  store i64 0, i64* %tmp97, align 8, !dbg !265, !id !209
  %abortOn = getelementptr inbounds %class.LeakTracer* %this, i32 0, i32 6, !dbg !266
  %tmp98 = bitcast i32* %abortOn to i8*, !dbg !266
  %tmp99 = bitcast i8* %tmp98 to i32*, !dbg !266
  store i32 1, i32* %tmp99, align 4, !dbg !266, !id !267
  %report = getelementptr inbounds %class.LeakTracer* %this, i32 0, i32 9, !dbg !268
  store %struct._IO_FILE* null, %struct._IO_FILE** %report, align 8, !dbg !268
  %leaks = getelementptr inbounds %class.LeakTracer* %this, i32 0, i32 10, !dbg !269
  store %"struct.LeakTracer::Leak"* null, %"struct.LeakTracer::Leak"** %leaks, align 8, !dbg !269
  %leakHash = getelementptr inbounds %class.LeakTracer* %this, i32 0, i32 11, !dbg !270
  store i32* null, i32** %leakHash, align 8, !dbg !270
  %call = call i8* @getenv(i8* getelementptr inbounds ([15 x i8]* @.str49, i32 0, i32 0)) nounwind, !dbg !271
  %tobool3 = icmp ne i8* %call, null, !dbg !271
  %call. = select i1 %tobool3, i8* %call, i8* getelementptr inbounds ([9 x i8]* @.str50, i32 0, i32 0), !dbg !271
  %call4 = call i32 @stat(i8* %call., %struct.stat* %dummy) nounwind, !dbg !272
  %cmp = icmp eq i32 %call4, 0, !dbg !272
  %arraydecay = getelementptr inbounds [256 x i8]* %uniqFilename, i32 0, i32 0, !dbg !273
  br i1 %cmp, label %if.then5.split, label %if.else.split, !dbg !272

if.then5.split:                                   ; preds = %if.end
  %call6 = call i32 @getpid() nounwind, !dbg !275
  %call7 = call i32 (i8*, i8*, ...)* @sprintf(i8* %arraydecay, i8* getelementptr inbounds ([6 x i8]* @.str51, i32 0, i32 0), i8* %call., i32 %call6) nounwind, !dbg !275
  %tmp100 = load %struct._IO_FILE** @stderr, align 8, !dbg !276
  %call9 = call i32 (%struct._IO_FILE*, i8*, ...)* @fprintf(%struct._IO_FILE* %tmp100, i8* getelementptr inbounds ([43 x i8]* @.str52, i32 0, i32 0), i8* %arraydecay), !dbg !276
  br label %if.end12.split, !dbg !277

if.else.split:                                    ; preds = %if.end
  %call11 = call i32 (i8*, i8*, ...)* @sprintf(i8* %arraydecay, i8* getelementptr inbounds ([3 x i8]* @.str53, i32 0, i32 0), i8* %call.) nounwind, !dbg !278
  br label %if.end12.split

if.end12.split:                                   ; preds = %if.else.split, %if.then5.split
  %call14 = call i32 (i8*, i32, ...)* @open(i8* %arraydecay, i32 577, i32 384), !dbg !280
  %cmp15 = icmp slt i32 %call14, 0, !dbg !281
  %tmp101 = load %struct._IO_FILE** @stderr, align 8, !dbg !282
  br i1 %cmp15, label %if.then16.split, label %if.else19.split, !dbg !281

if.then16.split:                                  ; preds = %if.end12.split
  %call17 = call i32 (%struct._IO_FILE*, i8*, ...)* @fprintf(%struct._IO_FILE* %tmp101, i8* getelementptr inbounds ([32 x i8]* @.str54, i32 0, i32 0), i8* %call.), !dbg !282
  %tmp102 = load %struct._IO_FILE** @stderr, align 8, !dbg !284
  store %struct._IO_FILE* %tmp102, %struct._IO_FILE** %report, align 8, !dbg !284
  br label %if.end29, !dbg !285

if.else19.split:                                  ; preds = %if.end12.split
  %call20 = call i32 @dup2(i32 %call14, i32 42) nounwind, !dbg !286
  %call21 = call i32 @close(i32 %call14), !dbg !288
  %call22 = call %struct._IO_FILE* @fdopen(i32 %call20, i8* getelementptr inbounds ([2 x i8]* @.str55, i32 0, i32 0)) nounwind, !dbg !289
  store %struct._IO_FILE* %call22, %struct._IO_FILE** %report, align 8, !dbg !289
  %cmp25 = icmp eq %struct._IO_FILE* %call22, null, !dbg !290
  %tmp103 = load %struct._IO_FILE** @stderr, align 8, !dbg !291
  br i1 %cmp25, label %if.then26, label %if.end29, !dbg !290

if.then26:                                        ; preds = %if.else19.split
  store %struct._IO_FILE* %tmp103, %struct._IO_FILE** %report, align 8, !dbg !291
  br label %if.end29, !dbg !293

if.end29:                                         ; preds = %if.then26, %if.else19.split, %if.then16.split
  %report78 = getelementptr %class.LeakTracer* %this, i64 0, i32 9
  %tmp104 = load %struct._IO_FILE** %report78, align 8, !dbg !294
  %report79 = getelementptr %class.LeakTracer* %this, i64 0, i32 9
  %tmp105 = load %struct._IO_FILE** %report79, align 8, !dbg !295
  %report80 = getelementptr %class.LeakTracer* %this, i64 0, i32 9
  %tmp106 = load %struct._IO_FILE** %report80, align 8, !dbg !296
  %report81 = getelementptr %class.LeakTracer* %this, i64 0, i32 9
  %tmp107 = load %struct._IO_FILE** %report81, align 8, !dbg !297
  %report82 = getelementptr %class.LeakTracer* %this, i64 0, i32 9
  %tmp108 = load %struct._IO_FILE** %report82, align 8, !dbg !298
  %report83 = getelementptr %class.LeakTracer* %this, i64 0, i32 9
  %tmp109 = load %struct._IO_FILE** %report83, align 8, !dbg !299
  %report84 = getelementptr %class.LeakTracer* %this, i64 0, i32 9
  %tmp110 = load %struct._IO_FILE** %report84, align 8, !dbg !300
  %call30 = call i64 @time(i64* null) nounwind, !dbg !301
  store i64 %call30, i64* %t, align 8, !dbg !301
  %call32 = call i8* @ctime(i64* %t) nounwind, !dbg !302
  %call33 = call i32 (%struct._IO_FILE*, i8*, ...)* @fprintf(%struct._IO_FILE* %tmp104, i8* getelementptr inbounds ([14 x i8]* @.str56, i32 0, i32 0), i8* %call32), !dbg !302
  %call34 = call noalias i8* @malloc(i64 141292) nounwind, !dbg !303
  %tmp111 = bitcast i8* %call34 to i32*, !dbg !303
  store i32* %tmp111, i32** %leakHash, align 8, !dbg !303
  %tmp112 = bitcast i32* %tmp111 to i8*, !dbg !304
  call void @llvm.memset.p0i8.i64(i8* %tmp112, i8 0, i64 141292, i32 1, i1 false), !dbg !304
  %call38 = call i32 (%struct._IO_FILE*, i8*, ...)* @fprintf(%struct._IO_FILE* %tmp105, i8* getelementptr inbounds ([41 x i8]* @.str57, i32 0, i32 0), i64 4), !dbg !295
  %call40 = call i32 (%struct._IO_FILE*, i8*, ...)* @fprintf(%struct._IO_FILE* %tmp106, i8* getelementptr inbounds ([38 x i8]* @.str58, i32 0, i32 0), i32 170), !dbg !296
  %call42 = call i32 (%struct._IO_FILE*, i8*, ...)* @fprintf(%struct._IO_FILE* %tmp107, i8* getelementptr inbounds ([38 x i8]* @.str59, i32 0, i32 0), i32 238), !dbg !297
  %call43 = call i8* @getenv(i8* getelementptr inbounds ([15 x i8]* @.str60, i32 0, i32 0)) nounwind, !dbg !305
  %tobool44 = icmp ne i8* %call43, null, !dbg !305
  br i1 %tobool44, label %if.then45.split, label %if.end49, !dbg !305

if.then45.split:                                  ; preds = %if.end29
  %call46 = call i8* @getenv(i8* getelementptr inbounds ([15 x i8]* @.str60, i32 0, i32 0)) nounwind, !dbg !306
  %call47 = call i32 @atoi(i8* %call46) nounwind readonly, !dbg !306
  store i32 %call47, i32* %tmp99, align 4, !dbg !306, !id !267
  br label %if.end49, !dbg !308

if.end49:                                         ; preds = %if.then45.split, %if.end29
  %tmp113 = getelementptr %class.LeakTracer* %this, i64 0, i32 6
  %tmp114 = load i32* %tmp113, align 4, !dbg !309, !id !267
  %tmp115 = getelementptr %class.LeakTracer* %this, i64 0, i32 6
  %tmp116 = load i32* %tmp115, align 4, !dbg !310, !id !267
  %tmp117 = getelementptr %class.LeakTracer* %this, i64 0, i32 6
  %tmp118 = load i32* %tmp117, align 4, !dbg !311, !id !267
  %call51 = call i32 (%struct._IO_FILE*, i8*, ...)* @fprintf(%struct._IO_FILE* %tmp108, i8* getelementptr inbounds ([13 x i8]* @.str61, i32 0, i32 0)), !dbg !298
  %and = and i32 %tmp114, 1, !dbg !309
  %tobool53 = icmp ne i32 %and, 0, !dbg !309
  br i1 %tobool53, label %if.then54.split, label %if.end57, !dbg !309

if.then54.split:                                  ; preds = %if.end49
  %call56 = call i32 (%struct._IO_FILE*, i8*, ...)* @fprintf(%struct._IO_FILE* %tmp109, i8* getelementptr inbounds ([4 x i8]* @.str62, i32 0, i32 0), i8* getelementptr inbounds ([17 x i8]* @.str63, i32 0, i32 0)), !dbg !299
  br label %if.end57, !dbg !299

if.end57:                                         ; preds = %if.then54.split, %if.end49
  %and59 = and i32 %tmp116, 2, !dbg !310
  %tobool60 = icmp ne i32 %and59, 0, !dbg !310
  br i1 %tobool60, label %if.then61.split, label %if.end64, !dbg !310

if.then61.split:                                  ; preds = %if.end57
  %call63 = call i32 (%struct._IO_FILE*, i8*, ...)* @fprintf(%struct._IO_FILE* %tmp110, i8* getelementptr inbounds ([4 x i8]* @.str62, i32 0, i32 0), i8* getelementptr inbounds ([19 x i8]* @.str64, i32 0, i32 0)), !dbg !300
  br label %if.end64, !dbg !300

if.end64:                                         ; preds = %if.then61.split, %if.end57
  %and66 = and i32 %tmp118, 4, !dbg !311
  %tobool67 = icmp ne i32 %and66, 0, !dbg !311
  %report85 = getelementptr %class.LeakTracer* %this, i64 0, i32 9
  %tmp119 = load %struct._IO_FILE** %report85, align 8, !dbg !312
  br i1 %tobool67, label %if.then68.split, label %if.end71, !dbg !311

if.then68.split:                                  ; preds = %if.end64
  %call70 = call i32 (%struct._IO_FILE*, i8*, ...)* @fprintf(%struct._IO_FILE* %tmp119, i8* getelementptr inbounds ([4 x i8]* @.str62, i32 0, i32 0), i8* getelementptr inbounds ([20 x i8]* @.str65, i32 0, i32 0)), !dbg !312
  br label %if.end71, !dbg !312

if.end71:                                         ; preds = %if.then68.split, %if.end64
  %tmp120 = load %struct._IO_FILE** %report, align 8, !dbg !313
  %call73 = call i32 (%struct._IO_FILE*, i8*, ...)* @fprintf(%struct._IO_FILE* %tmp120, i8* getelementptr inbounds ([2 x i8]* @.str23, i32 0, i32 0)), !dbg !313
  %tmp121 = load %struct._IO_FILE** %report, align 8, !dbg !314
  %call75 = call i32 (%struct._IO_FILE*, i8*, ...)* @fprintf(%struct._IO_FILE* %tmp121, i8* getelementptr inbounds ([69 x i8]* @.str66, i32 0, i32 0)), !dbg !314
  %tmp122 = load %struct._IO_FILE** %report, align 8, !dbg !315
  %call77 = call i32 @fflush(%struct._IO_FILE* %tmp122), !dbg !315
  br label %return, !dbg !316

return:                                           ; preds = %if.end71, %entry
  ret void, !dbg !316
}

declare i8* @llvm.ptr.annotation.p0i8(i8*, i8*, i8*, i32) nounwind

declare i32 @fprintf(%struct._IO_FILE*, i8*, ...)

define noalias i8* @malloc(i64 %size) nounwind uwtable {
entry:
  %call = call i8* @dlsym(i8* inttoptr (i64 -1 to i8*), i8* getelementptr inbounds ([7 x i8]* @.str39, i32 0, i32 0)) nounwind, !dbg !317
  %tmp = bitcast i8* %call to i8* (i64)*, !dbg !317
  store i8* (i64)* %tmp, i8* (i64)** @_ZZ6mallocE4fptr, align 8, !dbg !317
  %cmp = icmp eq i8* (i64)* %tmp, null, !dbg !319
  %tmp6 = load i8* (i64)** @_ZZ6mallocE4fptr, align 8, !dbg !320
  br i1 %cmp, label %if.then, label %if.end, !dbg !319

if.then:                                          ; preds = %entry
  %call1 = invoke i32 (i8*, ...)* @printf(i8* getelementptr inbounds ([18 x i8]* @.str40, i32 0, i32 0))
          to label %return unwind label %lpad, !dbg !321

lpad:                                             ; preds = %invoke.cont2, %if.end, %if.then
  %tmp7 = landingpad { i8*, i32 } personality i8* bitcast (i32 (...)* @__gxx_personality_v0 to i8*)
          filter [0 x i8*] zeroinitializer, !dbg !321
  %tmp8 = extractvalue { i8*, i32 } %tmp7, 0, !dbg !321
  call void @__cxa_call_unexpected(i8* %tmp8) noreturn, !dbg !323
  unreachable, !dbg !323

if.end:                                           ; preds = %entry
  %call3 = invoke i32 (i8*, ...)* @printf(i8* getelementptr inbounds ([27 x i8]* @.str41, i32 0, i32 0), i64 %size)
          to label %invoke.cont2 unwind label %lpad, !dbg !324

invoke.cont2:                                     ; preds = %if.end
  %call5 = invoke i8* %tmp6(i64 %size)
          to label %return unwind label %lpad, !dbg !320

return:                                           ; preds = %invoke.cont2, %if.then
  %retval.0 = phi i8* [ null, %if.then ], [ %call5, %invoke.cont2 ]
  ret i8* %retval.0, !dbg !323
}

declare void @_exit(i32) noreturn

declare void @llvm.memset.p0i8.i64(i8* nocapture, i8, i64, i32, i1) nounwind

declare void @llvm.memcpy.p0i8.p0i8.i64(i8* nocapture, i8* nocapture, i64, i32, i1) nounwind

declare i32 @_Z19__trap_annotate_i32iPKc(i32, i8*) nounwind readonly

declare i8* @llvm.returnaddress(i32) nounwind readnone

declare i64 @_Z19__trap_annotate_i64lPKc(i64, i8*) nounwind readonly

declare i8* @realloc(i8*, i64) nounwind

declare i32 @fflush(%struct._IO_FILE*)

define void @_ZN10LeakTracer7hexdumpEPKhi(%class.LeakTracer* %this, i8* %area, i32 %size) uwtable align 2 {
entry:
  %report = getelementptr inbounds %class.LeakTracer* %this, i32 0, i32 9, !dbg !325
  %tmp = load %struct._IO_FILE** %report, align 8, !dbg !325
  %report26 = getelementptr %class.LeakTracer* %this, i64 0, i32 9
  %tmp34 = load %struct._IO_FILE** %report26, align 8, !dbg !327
  %report28 = getelementptr %class.LeakTracer* %this, i64 0, i32 9
  %tmp35 = load %struct._IO_FILE** %report28, align 8, !dbg !330
  %report32 = getelementptr %class.LeakTracer* %this, i64 0, i32 9
  %tmp36 = load %struct._IO_FILE** %report32, align 8, !dbg !332
  %report33 = getelementptr %class.LeakTracer* %this, i64 0, i32 9
  %tmp37 = load %struct._IO_FILE** %report33, align 8, !dbg !335
  %call = call i32 (%struct._IO_FILE*, i8*, ...)* @fprintf(%struct._IO_FILE* %tmp, i8* getelementptr inbounds ([3 x i8]* @.str18, i32 0, i32 0)), !dbg !325
  br label %for.cond, !dbg !336

for.cond:                                         ; preds = %for.inc21.split, %entry
  %indvar = phi i64 [ %indvar.next, %for.inc21.split ], [ 0, %entry ]
  %j.0 = phi i32 [ 0, %entry ], [ %inc22, %for.inc21.split ]
  %tmp38 = add i64 %indvar, -15
  %add.ptr27 = getelementptr i8* %area, i64 %indvar
  %cmp = icmp slt i32 %j.0, %size, !dbg !336
  %tmp39 = load i8* %add.ptr27, align 1, !dbg !327
  br i1 %cmp, label %for.body, label %for.end23.split, !dbg !336

for.body:                                         ; preds = %for.cond
  %idx.ext = sext i32 %j.0 to i64, !dbg !327
  %add.ptr = getelementptr inbounds i8* %area, i64 %idx.ext, !dbg !327
  %conv = zext i8 %tmp39 to i32, !dbg !327
  %call3 = call i32 (%struct._IO_FILE*, i8*, ...)* @fprintf(%struct._IO_FILE* %tmp34, i8* getelementptr inbounds ([6 x i8]* @.str19, i32 0, i32 0), i32 %conv), !dbg !327
  %rem = srem i32 %j.0, 16, !dbg !337
  %cmp4 = icmp eq i32 %rem, 15, !dbg !337
  br i1 %cmp4, label %if.then.split, label %for.inc21.split, !dbg !337

if.then.split:                                    ; preds = %for.body
  %call6 = call i32 (%struct._IO_FILE*, i8*, ...)* @fprintf(%struct._IO_FILE* %tmp35, i8* getelementptr inbounds ([3 x i8]* @.str20, i32 0, i32 0)), !dbg !330
  br label %for.cond7, !dbg !338

for.cond7:                                        ; preds = %for.body9, %if.then.split
  %indvar29 = phi i64 [ %indvar.next30, %for.body9 ], [ 0, %if.then.split ]
  %k.0 = phi i32 [ -15, %if.then.split ], [ %inc, %for.body9 ]
  %tmp40 = add i64 %tmp38, %indvar29, !dbg !338
  %add.ptr1331 = getelementptr i8* %area, i64 %tmp40
  %cmp8 = icmp slt i32 %k.0, 0, !dbg !338
  %tmp41 = load i8* %add.ptr1331, align 1, !dbg !339
  br i1 %cmp8, label %for.body9, label %for.end.split, !dbg !338

for.body9:                                        ; preds = %for.cond7
  %idx.ext12 = sext i32 %k.0 to i64, !dbg !339
  %add.ptr13 = getelementptr inbounds i8* %add.ptr, i64 %idx.ext12, !dbg !339
  %conv15 = sext i8 %tmp41 to i32, !dbg !340
  %call16 = call i32 @isprint(i32 %conv15) nounwind, !dbg !340
  %tobool = icmp ne i32 %call16, 0, !dbg !340
  %cond = select i1 %tobool, i8 %tmp41, i8 46, !dbg !340
  %conv17 = sext i8 %cond to i32, !dbg !340
  %call18 = call i32 (%struct._IO_FILE*, i8*, ...)* @fprintf(%struct._IO_FILE* %tmp36, i8* getelementptr inbounds ([3 x i8]* @.str21, i32 0, i32 0), i32 %conv17), !dbg !340
  call void @trap.sadd.i32(i32 %k.0, i32 1), !dbg !341
  %inc = add nsw i32 %k.0, 1, !dbg !341
  %indvar.next30 = add i64 %indvar29, 1, !dbg !341
  br label %for.cond7, !dbg !341

for.end.split:                                    ; preds = %for.cond7
  %call20 = call i32 (%struct._IO_FILE*, i8*, ...)* @fprintf(%struct._IO_FILE* %tmp37, i8* getelementptr inbounds ([4 x i8]* @.str22, i32 0, i32 0)), !dbg !335
  br label %for.inc21.split, !dbg !342

for.inc21.split:                                  ; preds = %for.end.split, %for.body
  call void @trap.sadd.i32(i32 %j.0, i32 1), !dbg !343
  %inc22 = add nsw i32 %j.0, 1, !dbg !343
  %indvar.next = add i64 %indvar, 1, !dbg !343
  br label %for.cond, !dbg !343

for.end23.split:                                  ; preds = %for.cond
  %call25 = call i32 (%struct._IO_FILE*, i8*, ...)* @fprintf(%struct._IO_FILE* %tmp34, i8* getelementptr inbounds ([2 x i8]* @.str23, i32 0, i32 0)), !dbg !344
  ret void, !dbg !345
}

declare i32 @isprint(i32) nounwind

define void @_ZN10LeakTracer12registerFreeEPvb(%class.LeakTracer* %this, i8* %p, i1 zeroext %type) uwtable align 2 {
entry:
  %tmp = bitcast %class.LeakTracer* %this to i32*
  call void @_ZN10LeakTracer10initializeEv(%class.LeakTracer* %this), !dbg !346
  %cmp = icmp eq i8* %p, null, !dbg !348
  %destroyed101 = getelementptr %class.LeakTracer* %this, i64 0, i32 8
  %tmp137 = load i8* %destroyed101, align 1, !dbg !349, !id !198
  %tmp138 = load %struct._IO_FILE** @stderr, align 8, !dbg !350
  %leakHash102 = getelementptr %class.LeakTracer* %this, i64 0, i32 11
  %tmp139 = load i32** %leakHash102, align 8, !dbg !352
  %leaks103 = getelementptr %class.LeakTracer* %this, i64 0, i32 10
  %tmp140 = load %"struct.LeakTracer::Leak"** %leaks103, align 8, !dbg !353
  %leaks11104 = getelementptr %class.LeakTracer* %this, i64 0, i32 10
  %tmp141 = load %"struct.LeakTracer::Leak"** %leaks11104, align 8, !dbg !354
  %tmp142 = load i32* %tmp, align 4, !dbg !356, !id !207
  %leaks11113 = getelementptr %class.LeakTracer* %this, i64 0, i32 10
  %tmp143 = load %"struct.LeakTracer::Leak"** %leaks11113, align 8, !dbg !358
  %leaks11115 = getelementptr %class.LeakTracer* %this, i64 0, i32 10
  %tmp144 = load %"struct.LeakTracer::Leak"** %leaks11115, align 8, !dbg !359
  %tmp145 = getelementptr %class.LeakTracer* %this, i64 0, i32 3
  %tmp146 = load i32* %tmp145, align 4, !dbg !359, !id !211
  %tmp147 = getelementptr %class.LeakTracer* %this, i64 0, i32 2
  %tmp148 = load i32* %tmp147, align 4, !dbg !360, !id !223
  %leaks11119 = getelementptr %class.LeakTracer* %this, i64 0, i32 10
  %tmp149 = load %"struct.LeakTracer::Leak"** %leaks11119, align 8, !dbg !361
  %report121 = getelementptr %class.LeakTracer* %this, i64 0, i32 9
  %tmp150 = load %struct._IO_FILE** %report121, align 8, !dbg !362
  %report99136 = getelementptr %class.LeakTracer* %this, i64 0, i32 9
  %tmp151 = load %struct._IO_FILE** %report99136, align 8, !dbg !364
  br i1 %cmp, label %return, label %if.end, !dbg !348

if.end:                                           ; preds = %entry
  %destroyed = getelementptr inbounds %class.LeakTracer* %this, i32 0, i32 8, !dbg !349
  %tobool = trunc i8 %tmp137 to i1, !dbg !349
  br i1 %tobool, label %if.then2.split, label %if.end3, !dbg !349

if.then2.split:                                   ; preds = %if.end
  %call = call i32 (%struct._IO_FILE*, i8*, ...)* @fprintf(%struct._IO_FILE* %tmp138, i8* getelementptr inbounds ([51 x i8]* @.str24, i32 0, i32 0), i8* %p), !dbg !350
  br label %return, !dbg !365

if.end3:                                          ; preds = %if.end
  %frombool = zext i1 %type to i8
  %tmp152 = ptrtoint i8* %p to i64, !dbg !352
  %rem = urem i64 %tmp152, 35323, !dbg !352
  %call4 = call i64 @_Z19__trap_annotate_i64lPKc(i64 %rem, i8* getelementptr inbounds ([10 x i8]* @.str14, i32 0, i32 0)) nounwind readonly, !dbg !352
  %leakHash = getelementptr inbounds %class.LeakTracer* %this, i32 0, i32 11, !dbg !352
  %arrayidx = getelementptr inbounds i32* %tmp139, i64 %call4, !dbg !352
  %tmp153 = load i32* %arrayidx, align 4, !dbg !366
  %scevgep = getelementptr %"struct.LeakTracer::Leak"* %tmp141, i64 0, i32 4
  %scevgep109 = getelementptr %"struct.LeakTracer::Leak"* %tmp141, i64 0, i32 4
  br label %while.cond, !dbg !367

while.cond:                                       ; preds = %while.body, %if.end3
  %lastPointer.0 = phi i32* [ %arrayidx, %if.end3 ], [ %tmp167, %while.body ]
  %i.0 = phi i32 [ %tmp153, %if.end3 ], [ %tmp159, %while.body ]
  %cmp5 = icmp ne i32 %i.0, 0, !dbg !367
  br i1 %cmp5, label %land.rhs.split, label %land.end.split, !dbg !367

land.rhs.split:                                   ; preds = %while.cond
  %call6 = call i32 @_Z19__trap_annotate_i32iPKc(i32 %i.0, i8* getelementptr inbounds ([10 x i8]* @.str11, i32 0, i32 0)) nounwind readonly, !dbg !353
  %idxprom = sext i32 %call6 to i64, !dbg !353
  %leaks = getelementptr inbounds %class.LeakTracer* %this, i32 0, i32 10, !dbg !353
  %arrayidx7 = getelementptr inbounds %"struct.LeakTracer::Leak"* %tmp140, i64 %idxprom, !dbg !353
  %addr = getelementptr inbounds %"struct.LeakTracer::Leak"* %arrayidx7, i32 0, i32 0, !dbg !353
  %tmp154 = load i8** %addr, align 8, !dbg !353
  %cmp8 = icmp ne i8* %tmp154, %p, !dbg !353
  br label %land.end.split

land.end.split:                                   ; preds = %land.rhs.split, %while.cond
  %tmp155 = phi i1 [ false, %while.cond ], [ %cmp8, %land.rhs.split ]
  %call9 = call i32 @_Z19__trap_annotate_i32iPKc(i32 %i.0, i8* getelementptr inbounds ([10 x i8]* @.str11, i32 0, i32 0)) nounwind readonly, !dbg !354
  %idxprom10 = sext i32 %call9 to i64, !dbg !354
  %leaks11 = getelementptr inbounds %class.LeakTracer* %this, i32 0, i32 10, !dbg !354
  %arrayidx12 = getelementptr inbounds %"struct.LeakTracer::Leak"* %tmp141, i64 %idxprom10, !dbg !354
  %tmp156 = sext i32 %call9 to i64
  %tmp157 = mul i64 %tmp156, 8
  %tmp158 = getelementptr i32* %scevgep, i64 %tmp157
  %tmp159 = load i32* %tmp158, align 4, !dbg !368
  %tmp160 = sext i32 %call9 to i64
  %scevgep106 = getelementptr %"struct.LeakTracer::Leak"* %tmp141, i64 %tmp160
  %addr17108 = bitcast %"struct.LeakTracer::Leak"* %scevgep106 to i8**
  %tmp161 = load i8** %addr17108, align 8, !dbg !369
  %tmp162 = sext i32 %call9 to i64
  %tmp163 = mul i64 %tmp162, 8
  %tmp164 = getelementptr i32* %scevgep109, i64 %tmp163
  %tmp165 = load i32* %tmp164, align 4, !dbg !370, !id !240
  br i1 %tmp155, label %while.body, label %while.end

while.body:                                       ; preds = %land.end.split
  %nextBucket = getelementptr inbounds %"struct.LeakTracer::Leak"* %arrayidx12, i32 0, i32 4, !dbg !354
  %tmp166 = bitcast i32* %nextBucket to i8*, !dbg !354
  %tmp167 = bitcast i8* %tmp166 to i32*, !dbg !354
  br label %while.cond, !dbg !371

while.end:                                        ; preds = %land.end.split
  %addr17 = getelementptr inbounds %"struct.LeakTracer::Leak"* %arrayidx12, i32 0, i32 0, !dbg !369
  %cmp18 = icmp eq i8* %tmp161, %p, !dbg !369
  br i1 %cmp18, label %if.then19, label %if.end98, !dbg !369

if.then19:                                        ; preds = %while.end
  %nextBucket24 = getelementptr inbounds %"struct.LeakTracer::Leak"* %arrayidx12, i32 0, i32 4, !dbg !370
  %tmp168 = bitcast i32* %nextBucket24 to i8*, !dbg !370
  %tmp169 = bitcast i8* %tmp168 to i32*, !dbg !370
  store i32 %tmp165, i32* %lastPointer.0, align 4, !dbg !370
  %newCount = getelementptr inbounds %class.LeakTracer* %this, i32 0, i32 0, !dbg !356
  %tmp170 = bitcast i32* %newCount to i8*, !dbg !356
  %tmp171 = bitcast i8* %tmp170 to i32*, !dbg !356
  call void @trap.ssub.i32(i32 %tmp142, i32 1), !dbg !356
  %dec = sub nsw i32 %tmp142, 1, !dbg !356
  store i32 %dec, i32* %tmp171, align 4, !dbg !356, !id !207
  %call25 = call i32 @_Z19__trap_annotate_i32iPKc(i32 %i.0, i8* getelementptr inbounds ([10 x i8]* @.str11, i32 0, i32 0)) nounwind readonly, !dbg !358
  %idxprom26 = sext i32 %call25 to i64, !dbg !358
  %arrayidx28 = getelementptr inbounds %"struct.LeakTracer::Leak"* %tmp143, i64 %idxprom26, !dbg !358
  %addr29 = getelementptr inbounds %"struct.LeakTracer::Leak"* %arrayidx28, i32 0, i32 0, !dbg !358
  store i8* null, i8** %addr29, align 8, !dbg !358
  %call30 = call i32 @_Z19__trap_annotate_i32iPKc(i32 %i.0, i8* getelementptr inbounds ([10 x i8]* @.str11, i32 0, i32 0)) nounwind readonly, !dbg !359
  %idxprom31 = sext i32 %call30 to i64, !dbg !359
  %arrayidx33 = getelementptr inbounds %"struct.LeakTracer::Leak"* %tmp144, i64 %idxprom31, !dbg !359
  %size = getelementptr inbounds %"struct.LeakTracer::Leak"* %arrayidx33, i32 0, i32 1, !dbg !359
  %tmp172 = bitcast i64* %size to i8*, !dbg !359
  %tmp173 = bitcast i8* %tmp172 to i64*, !dbg !359
  %tmp174 = load i64* %tmp173, align 8, !dbg !359, !id !234
  %currentAllocated = getelementptr inbounds %class.LeakTracer* %this, i32 0, i32 3, !dbg !359
  %tmp175 = bitcast i32* %currentAllocated to i8*, !dbg !359
  %tmp176 = bitcast i8* %tmp175 to i32*, !dbg !359
  %conv = sext i32 %tmp146 to i64, !dbg !359
  call void @trap.usub.i64(i64 %conv, i64 %tmp174), !dbg !359
  %sub = sub i64 %conv, %tmp174, !dbg !359
  %conv34 = trunc i64 %sub to i32, !dbg !359
  store i32 %conv34, i32* %tmp176, align 4, !dbg !359, !id !211
  %firstFreeSpot = getelementptr inbounds %class.LeakTracer* %this, i32 0, i32 2, !dbg !360
  %tmp177 = bitcast i32* %firstFreeSpot to i8*, !dbg !360
  %tmp178 = bitcast i8* %tmp177 to i32*, !dbg !360
  %cmp35 = icmp slt i32 %i.0, %tmp148, !dbg !360
  br i1 %cmp35, label %if.then36, label %if.end38.split, !dbg !360

if.then36:                                        ; preds = %if.then19
  store i32 %i.0, i32* %tmp178, align 4, !dbg !372, !id !223
  br label %if.end38.split, !dbg !372

if.end38.split:                                   ; preds = %if.then36, %if.then19
  %call39 = call i32 @_Z19__trap_annotate_i32iPKc(i32 %i.0, i8* getelementptr inbounds ([10 x i8]* @.str11, i32 0, i32 0)) nounwind readonly, !dbg !361
  %idxprom40 = sext i32 %call39 to i64, !dbg !361
  %arrayidx42 = getelementptr inbounds %"struct.LeakTracer::Leak"* %tmp149, i64 %idxprom40, !dbg !361
  %type43 = getelementptr inbounds %"struct.LeakTracer::Leak"* %arrayidx42, i32 0, i32 3, !dbg !361
  %tmp179 = load i8* %type43, align 1, !dbg !361, !id !236
  %tobool44 = trunc i8 %tmp179 to i1, !dbg !361
  %conv45 = zext i1 %tobool44 to i32, !dbg !361
  %tobool46 = trunc i8 %frombool to i1, !dbg !361
  %conv47 = zext i1 %tobool46 to i32, !dbg !361
  %cmp48 = icmp ne i32 %conv45, %conv47, !dbg !361
  %tmp180 = sext i32 %call39 to i64
  %allocAddr123 = getelementptr %"struct.LeakTracer::Leak"* %tmp149, i64 %tmp180, i32 2
  %tmp181 = load i8** %allocAddr123, align 8, !dbg !373
  %tmp182 = sext i32 %call39 to i64
  %tmp183 = getelementptr %"struct.LeakTracer::Leak"* %tmp149, i64 %tmp182, i32 1
  %tmp184 = load i64* %tmp183, align 8, !dbg !374, !id !234
  br i1 %cmp48, label %if.then49, label %if.end63, !dbg !361

if.then49:                                        ; preds = %if.end38.split
  %report = getelementptr inbounds %class.LeakTracer* %this, i32 0, i32 9, !dbg !362
  %allocAddr = getelementptr inbounds %"struct.LeakTracer::Leak"* %arrayidx42, i32 0, i32 2, !dbg !373
  %tmp185 = call i8* @llvm.returnaddress(i32 1), !dbg !375
  %lnot = xor i1 %tobool46, true, !dbg !375
  %cond = select i1 %lnot, i8* getelementptr inbounds ([3 x i8]* @.str26, i32 0, i32 0), i8* getelementptr inbounds ([8 x i8]* @.str27, i32 0, i32 0), !dbg !375
  %cond56 = select i1 %tobool46, i8* getelementptr inbounds ([3 x i8]* @.str26, i32 0, i32 0), i8* getelementptr inbounds ([8 x i8]* @.str27, i32 0, i32 0), !dbg !375
  %size61 = getelementptr inbounds %"struct.LeakTracer::Leak"* %arrayidx42, i32 0, i32 1, !dbg !374
  %tmp186 = bitcast i64* %size61 to i8*, !dbg !374
  %tmp187 = bitcast i8* %tmp186 to i64*, !dbg !374
  %call62 = call i32 (%struct._IO_FILE*, i8*, ...)* @fprintf(%struct._IO_FILE* %tmp150, i8* getelementptr inbounds ([45 x i8]* @.str25, i32 0, i32 0), i8* %tmp181, i8* %tmp185, i8* %cond, i8* %cond56, i64 %tmp184), !dbg !374
  call void @_ZN10LeakTracer9progAbortENS_13abortReason_tE(%class.LeakTracer* %this, i32 4), !dbg !376
  br label %if.end63, !dbg !377

if.end63:                                         ; preds = %if.then49, %if.end38.split
  %leaks11126 = getelementptr %class.LeakTracer* %this, i64 0, i32 10
  %tmp188 = load %"struct.LeakTracer::Leak"** %leaks11126, align 8, !dbg !378
  %report72128 = getelementptr %class.LeakTracer* %this, i64 0, i32 9
  %tmp189 = load %struct._IO_FILE** %report72128, align 8, !dbg !379
  %call64 = call i32 @_Z19__trap_annotate_i32iPKc(i32 %i.0, i8* getelementptr inbounds ([10 x i8]* @.str11, i32 0, i32 0)) nounwind readonly, !dbg !378
  %idxprom65 = sext i32 %call64 to i64, !dbg !378
  %arrayidx67 = getelementptr inbounds %"struct.LeakTracer::Leak"* %tmp188, i64 %idxprom65, !dbg !378
  %size68 = getelementptr inbounds %"struct.LeakTracer::Leak"* %arrayidx67, i32 0, i32 1, !dbg !378
  %tmp190 = bitcast i64* %size68 to i8*, !dbg !378
  %tmp191 = bitcast i8* %tmp190 to i64*, !dbg !378
  %tmp192 = load i64* %tmp191, align 8, !dbg !378, !id !234
  %add.ptr = getelementptr inbounds i8* %p, i64 %tmp192, !dbg !378
  %tmp193 = sext i32 %call64 to i64
  %allocAddr77130 = getelementptr %"struct.LeakTracer::Leak"* %tmp188, i64 %tmp193, i32 2
  %tmp194 = load i8** %allocAddr77130, align 8, !dbg !381
  %call69 = call i32 @memcmp(i8* %add.ptr, i8* getelementptr inbounds ([5 x i8]* @.str4, i32 0, i32 0), i64 4) nounwind readonly, !dbg !378
  %tobool70 = icmp ne i32 %call69, 0, !dbg !378
  br i1 %tobool70, label %if.then71, label %if.end92, !dbg !378

if.then71:                                        ; preds = %if.end63
  %report72 = getelementptr inbounds %class.LeakTracer* %this, i32 0, i32 9, !dbg !379
  %allocAddr77 = getelementptr inbounds %"struct.LeakTracer::Leak"* %arrayidx67, i32 0, i32 2, !dbg !381
  %tmp195 = call i8* @llvm.returnaddress(i32 1), !dbg !382
  %call83 = call i32 (%struct._IO_FILE*, i8*, ...)* @fprintf(%struct._IO_FILE* %tmp189, i8* getelementptr inbounds ([61 x i8]* @.str28, i32 0, i32 0), i8* %tmp194, i8* %tmp195, i64 %tmp192), !dbg !383
  %tmp196 = load %struct._IO_FILE** %report72, align 8, !dbg !384
  %call85 = call i32 (%struct._IO_FILE*, i8*, ...)* @fprintf(%struct._IO_FILE* %tmp196, i8* getelementptr inbounds ([24 x i8]* @.str29, i32 0, i32 0), i64 4), !dbg !384
  %leaks11132 = getelementptr %class.LeakTracer* %this, i64 0, i32 10
  %tmp197 = load %"struct.LeakTracer::Leak"** %leaks11132, align 8, !dbg !385
  %call86 = call i32 @_Z19__trap_annotate_i32iPKc(i32 %i.0, i8* getelementptr inbounds ([10 x i8]* @.str11, i32 0, i32 0)) nounwind readonly, !dbg !385
  %idxprom87 = sext i32 %call86 to i64, !dbg !385
  %arrayidx89 = getelementptr inbounds %"struct.LeakTracer::Leak"* %tmp197, i64 %idxprom87, !dbg !385
  %size90 = getelementptr inbounds %"struct.LeakTracer::Leak"* %arrayidx89, i32 0, i32 1, !dbg !385
  %tmp198 = bitcast i64* %size90 to i8*, !dbg !385
  %tmp199 = bitcast i8* %tmp198 to i64*, !dbg !385
  %tmp200 = load i64* %tmp199, align 8, !dbg !385, !id !234
  %add.ptr91 = getelementptr inbounds i8* %p, i64 %tmp200, !dbg !385
  call void @_ZN10LeakTracer7hexdumpEPKhi(%class.LeakTracer* %this, i8* %add.ptr91, i32 4), !dbg !385
  call void @_ZN10LeakTracer9progAbortENS_13abortReason_tE(%class.LeakTracer* %this, i32 1), !dbg !386
  br label %if.end92, !dbg !387

if.end92:                                         ; preds = %if.then71, %if.end63
  %leaks11134 = getelementptr %class.LeakTracer* %this, i64 0, i32 10
  %tmp201 = load %"struct.LeakTracer::Leak"** %leaks11134, align 8, !dbg !388
  %call93 = call i32 @_Z19__trap_annotate_i32iPKc(i32 %i.0, i8* getelementptr inbounds ([10 x i8]* @.str11, i32 0, i32 0)) nounwind readonly, !dbg !388
  %idxprom94 = sext i32 %call93 to i64, !dbg !388
  %arrayidx96 = getelementptr inbounds %"struct.LeakTracer::Leak"* %tmp201, i64 %idxprom94, !dbg !388
  %size97 = getelementptr inbounds %"struct.LeakTracer::Leak"* %arrayidx96, i32 0, i32 1, !dbg !388
  %tmp202 = bitcast i64* %size97 to i8*, !dbg !388
  %tmp203 = bitcast i8* %tmp202 to i64*, !dbg !388
  %tmp204 = load i64* %tmp203, align 8, !dbg !388, !id !234
  call void @trap.uadd.i64(i64 %tmp204, i64 4), !dbg !388
  %add = add i64 %tmp204, 4, !dbg !388
  call void @llvm.memset.p0i8.i64(i8* %p, i8 -18, i64 %add, i32 1, i1 false), !dbg !388
  call void @free(i8* %p) nounwind, !dbg !389
  br label %return, !dbg !390

if.end98:                                         ; preds = %while.end
  %report99 = getelementptr inbounds %class.LeakTracer* %this, i32 0, i32 9, !dbg !364
  %tmp205 = call i8* @llvm.returnaddress(i32 1), !dbg !391
  %call100 = call i32 (%struct._IO_FILE*, i8*, ...)* @fprintf(%struct._IO_FILE* %tmp151, i8* getelementptr inbounds ([61 x i8]* @.str30, i32 0, i32 0), i8* %tmp205, i8* %p), !dbg !391
  call void @_ZN10LeakTracer9progAbortENS_13abortReason_tE(%class.LeakTracer* %this, i32 2), !dbg !392
  br label %return, !dbg !393

return:                                           ; preds = %if.end98, %if.end92, %if.then2.split, %entry
  ret void, !dbg !393
}

define linkonce_odr void @_ZN10LeakTracer9progAbortENS_13abortReason_tE(%class.LeakTracer* %this, i32 %reason) uwtable align 2 {
entry:
  %abortOn = getelementptr inbounds %class.LeakTracer* %this, i32 0, i32 6, !dbg !394
  %tmp = bitcast i32* %abortOn to i8*, !dbg !394
  %tmp7 = bitcast i8* %tmp to i32*, !dbg !394
  %tmp8 = load i32* %tmp7, align 4, !dbg !394, !id !267
  %and = and i32 %tmp8, %reason, !dbg !394
  %tobool = icmp ne i32 %and, 0, !dbg !394
  %report = getelementptr inbounds %class.LeakTracer* %this, i32 0, i32 9, !dbg !396
  %tmp9 = load %struct._IO_FILE** %report, align 8, !dbg !396
  br i1 %tobool, label %if.then.split, label %if.else.split, !dbg !394

if.then.split:                                    ; preds = %entry
  %call = call i32 (%struct._IO_FILE*, i8*, ...)* @fprintf(%struct._IO_FILE* %tmp9, i8* getelementptr inbounds ([32 x i8]* @.str46, i32 0, i32 0)), !dbg !396
  %tmp10 = load %struct._IO_FILE** @stderr, align 8, !dbg !398
  %call2 = call i32 (%struct._IO_FILE*, i8*, ...)* @fprintf(%struct._IO_FILE* %tmp10, i8* getelementptr inbounds ([29 x i8]* @.str47, i32 0, i32 0)), !dbg !398
  call void @_ZN10LeakTracer15writeLeakReportEv(%class.LeakTracer* %this), !dbg !399
  %tmp11 = load %struct._IO_FILE** %report, align 8, !dbg !400
  %call4 = call i32 @fclose(%struct._IO_FILE* %tmp11), !dbg !400
  call void @abort() noreturn nounwind, !dbg !401
  unreachable, !dbg !401

if.else.split:                                    ; preds = %entry
  %call6 = call i32 @fflush(%struct._IO_FILE* %tmp9), !dbg !402
  ret void, !dbg !403
}

declare i32 @memcmp(i8*, i8*, i64) nounwind readonly

declare void @free(i8*) nounwind

define void @_ZN10LeakTracer15writeLeakReportEv(%class.LeakTracer* %this) uwtable align 2 {
entry:
  call void @_ZN10LeakTracer10initializeEv(%class.LeakTracer* %this), !dbg !404
  %newCount = getelementptr inbounds %class.LeakTracer* %this, i32 0, i32 0, !dbg !406
  %tmp = bitcast i32* %newCount to i8*, !dbg !406
  %tmp51 = bitcast i8* %tmp to i32*, !dbg !406
  %tmp52 = load i32* %tmp51, align 4, !dbg !406, !id !207
  %cmp = icmp sgt i32 %tmp52, 0, !dbg !406
  %report38 = getelementptr %class.LeakTracer* %this, i64 0, i32 9
  %tmp53 = load %struct._IO_FILE** %report38, align 8, !dbg !407
  br i1 %cmp, label %if.then, label %if.end, !dbg !406

if.then:                                          ; preds = %entry
  %report = getelementptr inbounds %class.LeakTracer* %this, i32 0, i32 9, !dbg !407
  %call = call i32 (%struct._IO_FILE*, i8*, ...)* @fprintf(%struct._IO_FILE* %tmp53, i8* getelementptr inbounds ([14 x i8]* @.str31, i32 0, i32 0)), !dbg !407
  %tmp54 = load %struct._IO_FILE** %report, align 8, !dbg !409
  %call3 = call i32 (%struct._IO_FILE*, i8*, ...)* @fprintf(%struct._IO_FILE* %tmp54, i8* getelementptr inbounds ([30 x i8]* @.str32, i32 0, i32 0), i8* getelementptr inbounds ([11 x i8]* @.str33, i32 0, i32 0), i8* getelementptr inbounds ([5 x i8]* @.str34, i32 0, i32 0)), !dbg !409
  br label %if.end, !dbg !410

if.end:                                           ; preds = %if.then, %entry
  %leaks39 = getelementptr %class.LeakTracer* %this, i64 0, i32 10
  %report840 = getelementptr %class.LeakTracer* %this, i64 0, i32 9
  %report2446 = getelementptr %class.LeakTracer* %this, i64 0, i32 9
  %tmp55 = getelementptr %class.LeakTracer* %this, i64 0, i32 5
  %tmp56 = getelementptr %class.LeakTracer* %this, i64 0, i32 4
  br label %for.cond, !dbg !411

for.cond:                                         ; preds = %for.inc.split, %if.end
  %i.0 = phi i32 [ 0, %if.end ], [ %inc, %for.inc.split ]
  %leaksCount = getelementptr inbounds %class.LeakTracer* %this, i32 0, i32 1, !dbg !411
  %tmp57 = bitcast i32* %leaksCount to i8*, !dbg !411
  %tmp58 = bitcast i8* %tmp57 to i32*, !dbg !411
  %tmp59 = load i32* %tmp58, align 4, !dbg !411, !id !224
  %cmp4 = icmp slt i32 %i.0, %tmp59, !dbg !411
  %tmp60 = load %"struct.LeakTracer::Leak"** %leaks39, align 8, !dbg !413
  %tmp61 = load %struct._IO_FILE** %report840, align 8, !dbg !414
  %tmp62 = load %struct._IO_FILE** %report2446, align 8, !dbg !416
  %tmp63 = load i64* %tmp55, align 8, !dbg !416, !id !209
  %tmp64 = load i32* %tmp56, align 4, !dbg !416, !id !213
  br i1 %cmp4, label %for.body.split, label %for.end, !dbg !411

for.body.split:                                   ; preds = %for.cond
  %call5 = call i32 @_Z19__trap_annotate_i32iPKc(i32 %i.0, i8* getelementptr inbounds ([10 x i8]* @.str11, i32 0, i32 0)) nounwind readonly, !dbg !413
  %idxprom = sext i32 %call5 to i64, !dbg !413
  %leaks = getelementptr inbounds %class.LeakTracer* %this, i32 0, i32 10, !dbg !413
  %arrayidx = getelementptr inbounds %"struct.LeakTracer::Leak"* %tmp60, i64 %idxprom, !dbg !413
  %addr = getelementptr inbounds %"struct.LeakTracer::Leak"* %arrayidx, i32 0, i32 0, !dbg !413
  %tmp65 = load i8** %addr, align 8, !dbg !413
  %cmp6 = icmp ne i8* %tmp65, null, !dbg !413
  %scevgep = getelementptr %"struct.LeakTracer::Leak"* %tmp60, i64 0, i32 2
  %tmp66 = sext i32 %call5 to i64
  %tmp67 = mul i64 %tmp66, 4, !dbg !413
  %allocAddr42 = getelementptr i8** %scevgep, i64 %tmp67
  %tmp68 = load i8** %allocAddr42, align 8, !dbg !417
  %scevgep43 = getelementptr %"struct.LeakTracer::Leak"* %tmp60, i64 0, i32 1
  %tmp69 = sext i32 %call5 to i64
  %tmp70 = mul i64 %tmp69, 4, !dbg !413
  %tmp71 = getelementptr i64* %scevgep43, i64 %tmp70
  %tmp72 = load i64* %tmp71, align 8, !dbg !418, !id !234
  br i1 %cmp6, label %if.then7, label %for.inc.split, !dbg !413

if.then7:                                         ; preds = %for.body.split
  %report8 = getelementptr inbounds %class.LeakTracer* %this, i32 0, i32 9, !dbg !414
  %allocAddr = getelementptr inbounds %"struct.LeakTracer::Leak"* %arrayidx, i32 0, i32 2, !dbg !417
  %size = getelementptr inbounds %"struct.LeakTracer::Leak"* %arrayidx, i32 0, i32 1, !dbg !418
  %tmp73 = bitcast i64* %size to i8*, !dbg !418
  %tmp74 = bitcast i8* %tmp73 to i64*, !dbg !418
  %call22 = call i32 (%struct._IO_FILE*, i8*, ...)* @fprintf(%struct._IO_FILE* %tmp61, i8* getelementptr inbounds ([21 x i8]* @.str35, i32 0, i32 0), i8* %tmp68, i64 %tmp72, i8* %tmp65), !dbg !419
  br label %for.inc.split, !dbg !420

for.inc.split:                                    ; preds = %if.then7, %for.body.split
  call void @trap.sadd.i32(i32 %i.0, i32 1), !dbg !421
  %inc = add nsw i32 %i.0, 1, !dbg !421
  br label %for.cond, !dbg !421

for.end:                                          ; preds = %for.cond
  %report24 = getelementptr inbounds %class.LeakTracer* %this, i32 0, i32 9, !dbg !416
  %totalAllocations = getelementptr inbounds %class.LeakTracer* %this, i32 0, i32 5, !dbg !416
  %tmp75 = bitcast i64* %totalAllocations to i8*, !dbg !416
  %tmp76 = bitcast i8* %tmp75 to i64*, !dbg !416
  %maxAllocated = getelementptr inbounds %class.LeakTracer* %this, i32 0, i32 4, !dbg !416
  %tmp77 = bitcast i32* %maxAllocated to i8*, !dbg !416
  %tmp78 = bitcast i8* %tmp77 to i32*, !dbg !416
  %div = sdiv i32 %tmp64, 1024, !dbg !416
  %call25 = call i32 (%struct._IO_FILE*, i8*, ...)* @fprintf(%struct._IO_FILE* %tmp62, i8* getelementptr inbounds ([61 x i8]* @.str36, i32 0, i32 0), i64 %tmp63, i32 %div), !dbg !416
  %tmp79 = load %struct._IO_FILE** %report24, align 8, !dbg !422
  %currentAllocated = getelementptr inbounds %class.LeakTracer* %this, i32 0, i32 3, !dbg !422
  %tmp80 = bitcast i32* %currentAllocated to i8*, !dbg !422
  %tmp81 = bitcast i8* %tmp80 to i32*, !dbg !422
  %tmp82 = load i32* %tmp81, align 4, !dbg !422, !id !211
  %cmp28 = icmp eq i32 %tmp82, 0, !dbg !422
  %cond = select i1 %cmp28, i8 41, i8 40, !dbg !422
  %conv = sext i8 %cond to i32, !dbg !422
  %call29 = call i32 (%struct._IO_FILE*, i8*, ...)* @fprintf(%struct._IO_FILE* %tmp79, i8* getelementptr inbounds ([23 x i8]* @.str37, i32 0, i32 0), i32 %tmp82, i32 %conv), !dbg !422
  %tmp83 = load i32* %tmp81, align 4, !dbg !423, !id !211
  %cmp31 = icmp sgt i32 %tmp83, 51200, !dbg !423
  %report2450 = getelementptr %class.LeakTracer* %this, i64 0, i32 9
  %tmp84 = load %struct._IO_FILE** %report2450, align 8, !dbg !424
  br i1 %cmp31, label %if.then32, label %if.end37, !dbg !423

if.then32:                                        ; preds = %for.end
  %div35 = sdiv i32 %tmp83, 1024, !dbg !424
  %call36 = call i32 (%struct._IO_FILE*, i8*, ...)* @fprintf(%struct._IO_FILE* %tmp84, i8* getelementptr inbounds ([34 x i8]* @.str38, i32 0, i32 0), i32 %div35), !dbg !424
  br label %if.end37, !dbg !426

if.end37:                                         ; preds = %if.then32, %for.end
  ret void, !dbg !427
}

define i8* @_Znwm(i64 %size) uwtable {
entry:
  %call = call i8* @_ZN10LeakTracer13registerAllocEmb(%class.LeakTracer* @_ZL10leakTracer, i64 %size, i1 zeroext false), !dbg !428
  ret i8* %call, !dbg !428
}

define i8* @_Znam(i64 %size) uwtable {
entry:
  %call = call i8* @_ZN10LeakTracer13registerAllocEmb(%class.LeakTracer* @_ZL10leakTracer, i64 %size, i1 zeroext true), !dbg !430
  ret i8* %call, !dbg !430
}

define void @_ZdlPv(i8* %p) uwtable {
entry:
  call void @_ZN10LeakTracer12registerFreeEPvb(%class.LeakTracer* @_ZL10leakTracer, i8* %p, i1 zeroext false), !dbg !432
  ret void, !dbg !434
}

define void @_ZdaPv(i8* %p) uwtable {
entry:
  call void @_ZN10LeakTracer12registerFreeEPvb(%class.LeakTracer* @_ZL10leakTracer, i8* %p, i1 zeroext true), !dbg !435
  ret void, !dbg !437
}

declare i8* @dlsym(i8*, i8*) nounwind

declare i32 @printf(i8*, ...)

declare i32 @__gxx_personality_v0(...)

declare void @__cxa_call_unexpected(i8*)

define i64 @read(i32 %fd, i8* %buf, i64 %nbytes) uwtable {
entry:
  %call = call i8* @dlsym(i8* inttoptr (i64 -1 to i8*), i8* getelementptr inbounds ([5 x i8]* @.str42, i32 0, i32 0)) nounwind, !dbg !438
  %tmp = bitcast i8* %call to i64 (i32, i8*, i64)*, !dbg !438
  store i64 (i32, i8*, i64)* %tmp, i64 (i32, i8*, i64)** @_ZZ4readE6readfn, align 8, !dbg !438
  %cmp = icmp eq i64 (i32, i8*, i64)* %tmp, null, !dbg !440
  br i1 %cmp, label %if.then.split, label %if.end.split, !dbg !440

if.then.split:                                    ; preds = %entry
  %call1 = call i32 (i8*, ...)* @printf(i8* getelementptr inbounds ([16 x i8]* @.str43, i32 0, i32 0)), !dbg !441
  br label %return, !dbg !443

if.end.split:                                     ; preds = %entry
  %call2 = call i64 %tmp(i32 %fd, i8* %buf, i64 %nbytes), !dbg !444
  %call3 = call i32 (i8*, ...)* @printf(i8* getelementptr inbounds ([44 x i8]* @.str44, i32 0, i32 0), i8* %buf, i64 %nbytes, i64 %call2), !dbg !445
  br label %return, !dbg !446

return:                                           ; preds = %if.end.split, %if.then.split
  %retval.0 = phi i64 [ 0, %if.then.split ], [ %call2, %if.end.split ]
  ret i64 %retval.0, !dbg !447
}

declare i32 @fclose(%struct._IO_FILE*)

declare void @abort() noreturn nounwind

declare i8* @getenv(i8*) nounwind

declare i32 @stat(i8*, %struct.stat*) nounwind

declare i32 @sprintf(i8*, i8*, ...) nounwind

declare i32 @getpid() nounwind

declare i32 @open(i8*, i32, ...)

declare i32 @dup2(i32, i32) nounwind

declare i32 @close(i32)

declare %struct._IO_FILE* @fdopen(i32, i8*) nounwind

declare i64 @time(i64*) nounwind

declare i8* @ctime(i64*) nounwind

declare i32 @atoi(i8*) nounwind readonly

define linkonce_odr void @_ZN10LeakTracerD2Ev(%class.LeakTracer* %this) unnamed_addr uwtable align 2 {
entry:
  %t = alloca i64, align 8
  %call = call i64 @time(i64* null) nounwind, !dbg !448
  store i64 %call, i64* %t, align 8, !dbg !448
  %report = getelementptr inbounds %class.LeakTracer* %this, i32 0, i32 9, !dbg !450
  %tmp = load %struct._IO_FILE** %report, align 8, !dbg !450
  %call2 = call i8* @ctime(i64* %t) nounwind, !dbg !451
  %call3 = call i32 (%struct._IO_FILE*, i8*, ...)* @fprintf(%struct._IO_FILE* %tmp, i8* getelementptr inbounds ([14 x i8]* @.str67, i32 0, i32 0), i8* %call2), !dbg !451
  call void @_ZN10LeakTracer15writeLeakReportEv(%class.LeakTracer* %this), !dbg !452
  %tmp6 = load %struct._IO_FILE** %report, align 8, !dbg !453
  %call5 = call i32 @fclose(%struct._IO_FILE* %tmp6), !dbg !453
  %leaks = getelementptr inbounds %class.LeakTracer* %this, i32 0, i32 10, !dbg !454
  %tmp7 = load %"struct.LeakTracer::Leak"** %leaks, align 8, !dbg !454
  %tmp8 = bitcast %"struct.LeakTracer::Leak"* %tmp7 to i8*, !dbg !454
  call void @free(i8* %tmp8) nounwind, !dbg !454
  %destroyed = getelementptr inbounds %class.LeakTracer* %this, i32 0, i32 8, !dbg !455
  store i8 1, i8* %destroyed, align 1, !dbg !455, !id !198
  ret void, !dbg !456
}

define linkonce_odr void @_ZN10LeakTracerC2Ev(%class.LeakTracer* %this) unnamed_addr uwtable align 2 {
entry:
  call void @_ZN10LeakTracer10initializeEv(%class.LeakTracer* %this), !dbg !457
  ret void, !dbg !459
}

define internal void @_GLOBAL__I_a() section ".text.startup" {
entry:
  call void @__cxx_global_var_init()
  ret void
}

declare void @trap.uadd.i64(i64, i64) nounwind

declare void @trap.sadd.i32(i32, i32) nounwind

declare void @trap.urem.i64(i64) nounwind

declare void @trap.smul.i32(i32, i32) nounwind

declare void @trap.umul.i64(i64, i64) nounwind

declare void @trap.ssub.i32(i32, i32) nounwind

declare void @trap.srem.i32(i32, i32) nounwind

declare void @trap.usub.i64(i64, i64) nounwind

declare void @trap.sdiv.i32(i32, i32) nounwind

!llvm.dbg.cu = !{!0}
!cint.structs = !{!145, !146, !147, !148, !149, !150, !151, !152, !153, !154, !155, !156, !157, !158, !159, !160, !161, !162, !163, !164, !165, !166, !167, !168, !169, !170, !171, !172, !173, !174, !175, !176, !177, !178, !179, !180, !181, !182, !183, !184, !185, !186, !187, !188, !189, !190, !191}

!0 = metadata !{i32 786449, i32 0, i32 4, metadata !"LeakTracer.cc", metadata !"/home/xqx/kint/xi-int/xqx", metadata !"clang version 3.1 (tags/RELEASE_31/final 176548)", i1 true, i1 false, metadata !"", i32 0, metadata !1, metadata !110, metadata !112, metadata !138} ; [ DW_TAG_compile_unit ]
!1 = metadata !{metadata !2}
!2 = metadata !{metadata !3, metadata !3, metadata !3, metadata !3, metadata !3, metadata !3, metadata !3, metadata !3}
!3 = metadata !{i32 786436, metadata !4, metadata !"abortReason_t", metadata !5, i32 133, i64 32, i64 32, i32 0, i32 0, null, metadata !106, i32 0, i32 0} ; [ DW_TAG_enumeration_type ]
!4 = metadata !{i32 786434, null, metadata !"LeakTracer", metadata !5, i32 91, i64 512, i64 64, i32 0, i32 0, null, metadata !6, i32 0, null, null} ; [ DW_TAG_class_type ]
!5 = metadata !{i32 786473, metadata !"LeakTracer.cc", metadata !"/home/xqx/kint/xi-int/xqx", null} ; [ DW_TAG_file_type ]
!6 = metadata !{metadata !7, metadata !9, metadata !10, metadata !11, metadata !12, metadata !13, metadata !15, metadata !17, metadata !19, metadata !20, metadata !77, metadata !80, metadata !82, metadata !88, metadata !89, metadata !92, metadata !95, metadata !101, metadata !104, metadata !105}
!7 = metadata !{i32 786445, metadata !4, metadata !"newCount", metadata !5, i32 100, i64 32, i64 32, i64 0, i32 1, metadata !8} ; [ DW_TAG_member ]
!8 = metadata !{i32 786468, null, metadata !"int", null, i32 0, i64 32, i64 32, i64 0, i32 0, i32 5} ; [ DW_TAG_base_type ]
!9 = metadata !{i32 786445, metadata !4, metadata !"leaksCount", metadata !5, i32 101, i64 32, i64 32, i64 32, i32 1, metadata !8} ; [ DW_TAG_member ]
!10 = metadata !{i32 786445, metadata !4, metadata !"firstFreeSpot", metadata !5, i32 102, i64 32, i64 32, i64 64, i32 1, metadata !8} ; [ DW_TAG_member ]
!11 = metadata !{i32 786445, metadata !4, metadata !"currentAllocated", metadata !5, i32 103, i64 32, i64 32, i64 96, i32 1, metadata !8} ; [ DW_TAG_member ]
!12 = metadata !{i32 786445, metadata !4, metadata !"maxAllocated", metadata !5, i32 104, i64 32, i64 32, i64 128, i32 1, metadata !8} ; [ DW_TAG_member ]
!13 = metadata !{i32 786445, metadata !4, metadata !"totalAllocations", metadata !5, i32 105, i64 64, i64 64, i64 192, i32 1, metadata !14} ; [ DW_TAG_member ]
!14 = metadata !{i32 786468, null, metadata !"long unsigned int", null, i32 0, i64 64, i64 64, i64 0, i32 0, i32 7} ; [ DW_TAG_base_type ]
!15 = metadata !{i32 786445, metadata !4, metadata !"abortOn", metadata !5, i32 106, i64 32, i64 32, i64 256, i32 1, metadata !16} ; [ DW_TAG_member ]
!16 = metadata !{i32 786468, null, metadata !"unsigned int", null, i32 0, i64 32, i64 32, i64 0, i32 0, i32 7} ; [ DW_TAG_base_type ]
!17 = metadata !{i32 786445, metadata !4, metadata !"initialized", metadata !5, i32 112, i64 8, i64 8, i64 288, i32 1, metadata !18} ; [ DW_TAG_member ]
!18 = metadata !{i32 786468, null, metadata !"bool", null, i32 0, i64 8, i64 8, i64 0, i32 0, i32 2} ; [ DW_TAG_base_type ]
!19 = metadata !{i32 786445, metadata !4, metadata !"destroyed", metadata !5, i32 113, i64 8, i64 8, i64 296, i32 1, metadata !18} ; [ DW_TAG_member ]
!20 = metadata !{i32 786445, metadata !4, metadata !"report", metadata !5, i32 116, i64 64, i64 64, i64 320, i32 1, metadata !21} ; [ DW_TAG_member ]
!21 = metadata !{i32 786447, null, metadata !"", null, i32 0, i64 64, i64 64, i64 0, i32 0, metadata !22} ; [ DW_TAG_pointer_type ]
!22 = metadata !{i32 786454, null, metadata !"FILE", metadata !5, i32 49, i64 0, i64 0, i64 0, i32 0, metadata !23} ; [ DW_TAG_typedef ]
!23 = metadata !{i32 786434, null, metadata !"_IO_FILE", metadata !24, i32 271, i64 1728, i64 64, i32 0, i32 0, null, metadata !25, i32 0, null, null} ; [ DW_TAG_class_type ]
!24 = metadata !{i32 786473, metadata !"/usr/include/libio.h", metadata !"/home/xqx/kint/xi-int/xqx", null} ; [ DW_TAG_file_type ]
!25 = metadata !{metadata !26, metadata !27, metadata !30, metadata !31, metadata !32, metadata !33, metadata !34, metadata !35, metadata !36, metadata !37, metadata !38, metadata !39, metadata !40, metadata !48, metadata !49, metadata !50, metadata !51, metadata !54, metadata !56, metadata !58, metadata !62, metadata !64, metadata !66, metadata !67, metadata !68, metadata !69, metadata !70, metadata !72, metadata !73}
!26 = metadata !{i32 786445, metadata !23, metadata !"_flags", metadata !24, i32 272, i64 32, i64 32, i64 0, i32 0, metadata !8} ; [ DW_TAG_member ]
!27 = metadata !{i32 786445, metadata !23, metadata !"_IO_read_ptr", metadata !24, i32 277, i64 64, i64 64, i64 64, i32 0, metadata !28} ; [ DW_TAG_member ]
!28 = metadata !{i32 786447, null, metadata !"", null, i32 0, i64 64, i64 64, i64 0, i32 0, metadata !29} ; [ DW_TAG_pointer_type ]
!29 = metadata !{i32 786468, null, metadata !"char", null, i32 0, i64 8, i64 8, i64 0, i32 0, i32 6} ; [ DW_TAG_base_type ]
!30 = metadata !{i32 786445, metadata !23, metadata !"_IO_read_end", metadata !24, i32 278, i64 64, i64 64, i64 128, i32 0, metadata !28} ; [ DW_TAG_member ]
!31 = metadata !{i32 786445, metadata !23, metadata !"_IO_read_base", metadata !24, i32 279, i64 64, i64 64, i64 192, i32 0, metadata !28} ; [ DW_TAG_member ]
!32 = metadata !{i32 786445, metadata !23, metadata !"_IO_write_base", metadata !24, i32 280, i64 64, i64 64, i64 256, i32 0, metadata !28} ; [ DW_TAG_member ]
!33 = metadata !{i32 786445, metadata !23, metadata !"_IO_write_ptr", metadata !24, i32 281, i64 64, i64 64, i64 320, i32 0, metadata !28} ; [ DW_TAG_member ]
!34 = metadata !{i32 786445, metadata !23, metadata !"_IO_write_end", metadata !24, i32 282, i64 64, i64 64, i64 384, i32 0, metadata !28} ; [ DW_TAG_member ]
!35 = metadata !{i32 786445, metadata !23, metadata !"_IO_buf_base", metadata !24, i32 283, i64 64, i64 64, i64 448, i32 0, metadata !28} ; [ DW_TAG_member ]
!36 = metadata !{i32 786445, metadata !23, metadata !"_IO_buf_end", metadata !24, i32 284, i64 64, i64 64, i64 512, i32 0, metadata !28} ; [ DW_TAG_member ]
!37 = metadata !{i32 786445, metadata !23, metadata !"_IO_save_base", metadata !24, i32 286, i64 64, i64 64, i64 576, i32 0, metadata !28} ; [ DW_TAG_member ]
!38 = metadata !{i32 786445, metadata !23, metadata !"_IO_backup_base", metadata !24, i32 287, i64 64, i64 64, i64 640, i32 0, metadata !28} ; [ DW_TAG_member ]
!39 = metadata !{i32 786445, metadata !23, metadata !"_IO_save_end", metadata !24, i32 288, i64 64, i64 64, i64 704, i32 0, metadata !28} ; [ DW_TAG_member ]
!40 = metadata !{i32 786445, metadata !23, metadata !"_markers", metadata !24, i32 290, i64 64, i64 64, i64 768, i32 0, metadata !41} ; [ DW_TAG_member ]
!41 = metadata !{i32 786447, null, metadata !"", null, i32 0, i64 64, i64 64, i64 0, i32 0, metadata !42} ; [ DW_TAG_pointer_type ]
!42 = metadata !{i32 786434, null, metadata !"_IO_marker", metadata !24, i32 186, i64 192, i64 64, i32 0, i32 0, null, metadata !43, i32 0, null, null} ; [ DW_TAG_class_type ]
!43 = metadata !{metadata !44, metadata !45, metadata !47}
!44 = metadata !{i32 786445, metadata !42, metadata !"_next", metadata !24, i32 187, i64 64, i64 64, i64 0, i32 0, metadata !41} ; [ DW_TAG_member ]
!45 = metadata !{i32 786445, metadata !42, metadata !"_sbuf", metadata !24, i32 188, i64 64, i64 64, i64 64, i32 0, metadata !46} ; [ DW_TAG_member ]
!46 = metadata !{i32 786447, null, metadata !"", null, i32 0, i64 64, i64 64, i64 0, i32 0, metadata !23} ; [ DW_TAG_pointer_type ]
!47 = metadata !{i32 786445, metadata !42, metadata !"_pos", metadata !24, i32 192, i64 32, i64 32, i64 128, i32 0, metadata !8} ; [ DW_TAG_member ]
!48 = metadata !{i32 786445, metadata !23, metadata !"_chain", metadata !24, i32 292, i64 64, i64 64, i64 832, i32 0, metadata !46} ; [ DW_TAG_member ]
!49 = metadata !{i32 786445, metadata !23, metadata !"_fileno", metadata !24, i32 294, i64 32, i64 32, i64 896, i32 0, metadata !8} ; [ DW_TAG_member ]
!50 = metadata !{i32 786445, metadata !23, metadata !"_flags2", metadata !24, i32 298, i64 32, i64 32, i64 928, i32 0, metadata !8} ; [ DW_TAG_member ]
!51 = metadata !{i32 786445, metadata !23, metadata !"_old_offset", metadata !24, i32 300, i64 64, i64 64, i64 960, i32 0, metadata !52} ; [ DW_TAG_member ]
!52 = metadata !{i32 786454, null, metadata !"__off_t", metadata !24, i32 141, i64 0, i64 0, i64 0, i32 0, metadata !53} ; [ DW_TAG_typedef ]
!53 = metadata !{i32 786468, null, metadata !"long int", null, i32 0, i64 64, i64 64, i64 0, i32 0, i32 5} ; [ DW_TAG_base_type ]
!54 = metadata !{i32 786445, metadata !23, metadata !"_cur_column", metadata !24, i32 304, i64 16, i64 16, i64 1024, i32 0, metadata !55} ; [ DW_TAG_member ]
!55 = metadata !{i32 786468, null, metadata !"unsigned short", null, i32 0, i64 16, i64 16, i64 0, i32 0, i32 7} ; [ DW_TAG_base_type ]
!56 = metadata !{i32 786445, metadata !23, metadata !"_vtable_offset", metadata !24, i32 305, i64 8, i64 8, i64 1040, i32 0, metadata !57} ; [ DW_TAG_member ]
!57 = metadata !{i32 786468, null, metadata !"signed char", null, i32 0, i64 8, i64 8, i64 0, i32 0, i32 6} ; [ DW_TAG_base_type ]
!58 = metadata !{i32 786445, metadata !23, metadata !"_shortbuf", metadata !24, i32 306, i64 8, i64 8, i64 1048, i32 0, metadata !59} ; [ DW_TAG_member ]
!59 = metadata !{i32 786433, null, metadata !"", null, i32 0, i64 8, i64 8, i32 0, i32 0, metadata !29, metadata !60, i32 0, i32 0} ; [ DW_TAG_array_type ]
!60 = metadata !{metadata !61}
!61 = metadata !{i32 786465, i64 0, i64 0}        ; [ DW_TAG_subrange_type ]
!62 = metadata !{i32 786445, metadata !23, metadata !"_lock", metadata !24, i32 310, i64 64, i64 64, i64 1088, i32 0, metadata !63} ; [ DW_TAG_member ]
!63 = metadata !{i32 786447, null, metadata !"", null, i32 0, i64 64, i64 64, i64 0, i32 0, null} ; [ DW_TAG_pointer_type ]
!64 = metadata !{i32 786445, metadata !23, metadata !"_offset", metadata !24, i32 319, i64 64, i64 64, i64 1152, i32 0, metadata !65} ; [ DW_TAG_member ]
!65 = metadata !{i32 786454, null, metadata !"__off64_t", metadata !24, i32 142, i64 0, i64 0, i64 0, i32 0, metadata !53} ; [ DW_TAG_typedef ]
!66 = metadata !{i32 786445, metadata !23, metadata !"__pad1", metadata !24, i32 328, i64 64, i64 64, i64 1216, i32 0, metadata !63} ; [ DW_TAG_member ]
!67 = metadata !{i32 786445, metadata !23, metadata !"__pad2", metadata !24, i32 329, i64 64, i64 64, i64 1280, i32 0, metadata !63} ; [ DW_TAG_member ]
!68 = metadata !{i32 786445, metadata !23, metadata !"__pad3", metadata !24, i32 330, i64 64, i64 64, i64 1344, i32 0, metadata !63} ; [ DW_TAG_member ]
!69 = metadata !{i32 786445, metadata !23, metadata !"__pad4", metadata !24, i32 331, i64 64, i64 64, i64 1408, i32 0, metadata !63} ; [ DW_TAG_member ]
!70 = metadata !{i32 786445, metadata !23, metadata !"__pad5", metadata !24, i32 332, i64 64, i64 64, i64 1472, i32 0, metadata !71} ; [ DW_TAG_member ]
!71 = metadata !{i32 786454, null, metadata !"size_t", metadata !24, i32 35, i64 0, i64 0, i64 0, i32 0, metadata !14} ; [ DW_TAG_typedef ]
!72 = metadata !{i32 786445, metadata !23, metadata !"_mode", metadata !24, i32 334, i64 32, i64 32, i64 1536, i32 0, metadata !8} ; [ DW_TAG_member ]
!73 = metadata !{i32 786445, metadata !23, metadata !"_unused2", metadata !24, i32 336, i64 160, i64 8, i64 1568, i32 0, metadata !74} ; [ DW_TAG_member ]
!74 = metadata !{i32 786433, null, metadata !"", null, i32 0, i64 160, i64 8, i32 0, i32 0, metadata !29, metadata !75, i32 0, i32 0} ; [ DW_TAG_array_type ]
!75 = metadata !{metadata !76}
!76 = metadata !{i32 786465, i64 0, i64 19}       ; [ DW_TAG_subrange_type ]
!77 = metadata !{i32 786445, metadata !4, metadata !"leaks", metadata !5, i32 121, i64 64, i64 64, i64 384, i32 1, metadata !78} ; [ DW_TAG_member ]
!78 = metadata !{i32 786447, null, metadata !"", null, i32 0, i64 64, i64 64, i64 0, i32 0, metadata !79} ; [ DW_TAG_pointer_type ]
!79 = metadata !{i32 786434, null, metadata !"Leak", metadata !5, i32 92, i32 0, i32 0, i32 0, i32 4, null, null, i32 0} ; [ DW_TAG_class_type ]
!80 = metadata !{i32 786445, metadata !4, metadata !"leakHash", metadata !5, i32 127, i64 64, i64 64, i64 448, i32 1, metadata !81} ; [ DW_TAG_member ]
!81 = metadata !{i32 786447, null, metadata !"", null, i32 0, i64 64, i64 64, i64 0, i32 0, metadata !8} ; [ DW_TAG_pointer_type ]
!82 = metadata !{i32 786478, i32 0, metadata !4, metadata !"LeakTracer", metadata !"LeakTracer", metadata !"", metadata !5, i32 140, metadata !83, i1 false, i1 false, i32 0, i32 0, null, i32 256, i1 false, null, null, i32 0, metadata !86, i32 140} ; [ DW_TAG_subprogram ]
!83 = metadata !{i32 786453, i32 0, metadata !"", i32 0, i32 0, i64 0, i64 0, i64 0, i32 0, null, metadata !84, i32 0, i32 0} ; [ DW_TAG_subroutine_type ]
!84 = metadata !{null, metadata !85}
!85 = metadata !{i32 786447, i32 0, metadata !"", i32 0, i32 0, i64 64, i64 64, i64 0, i32 64, metadata !4} ; [ DW_TAG_pointer_type ]
!86 = metadata !{metadata !87}
!87 = metadata !{i32 786468}                      ; [ DW_TAG_base_type ]
!88 = metadata !{i32 786478, i32 0, metadata !4, metadata !"initialize", metadata !"initialize", metadata !"_ZN10LeakTracer10initializeEv", metadata !5, i32 144, metadata !83, i1 false, i1 false, i32 0, i32 0, null, i32 256, i1 false, null, null, i32 0, metadata !86, i32 144} ; [ DW_TAG_subprogram ]
!89 = metadata !{i32 786478, i32 0, metadata !4, metadata !"registerAlloc", metadata !"registerAlloc", metadata !"_ZN10LeakTracer13registerAllocEmb", metadata !5, i32 242, metadata !90, i1 false, i1 false, i32 0, i32 0, null, i32 256, i1 false, null, null, i32 0, metadata !86, i32 242} ; [ DW_TAG_subprogram ]
!90 = metadata !{i32 786453, i32 0, metadata !"", i32 0, i32 0, i64 0, i64 0, i64 0, i32 0, null, metadata !91, i32 0, i32 0} ; [ DW_TAG_subroutine_type ]
!91 = metadata !{metadata !63, metadata !85, metadata !71, metadata !18}
!92 = metadata !{i32 786478, i32 0, metadata !4, metadata !"registerFree", metadata !"registerFree", metadata !"_ZN10LeakTracer12registerFreeEPvb", metadata !5, i32 243, metadata !93, i1 false, i1 false, i32 0, i32 0, null, i32 256, i1 false, null, null, i32 0, metadata !86, i32 243} ; [ DW_TAG_subprogram ]
!93 = metadata !{i32 786453, i32 0, metadata !"", i32 0, i32 0, i64 0, i64 0, i64 0, i32 0, null, metadata !94, i32 0, i32 0} ; [ DW_TAG_subroutine_type ]
!94 = metadata !{null, metadata !85, metadata !63, metadata !18}
!95 = metadata !{i32 786478, i32 0, metadata !4, metadata !"hexdump", metadata !"hexdump", metadata !"_ZN10LeakTracer7hexdumpEPKhi", metadata !5, i32 248, metadata !96, i1 false, i1 false, i32 0, i32 0, null, i32 256, i1 false, null, null, i32 0, metadata !86, i32 248} ; [ DW_TAG_subprogram ]
!96 = metadata !{i32 786453, i32 0, metadata !"", i32 0, i32 0, i64 0, i64 0, i64 0, i32 0, null, metadata !97, i32 0, i32 0} ; [ DW_TAG_subroutine_type ]
!97 = metadata !{null, metadata !85, metadata !98, metadata !8}
!98 = metadata !{i32 786447, null, metadata !"", null, i32 0, i64 64, i64 64, i64 0, i32 0, metadata !99} ; [ DW_TAG_pointer_type ]
!99 = metadata !{i32 786470, null, metadata !"", null, i32 0, i64 0, i64 0, i64 0, i32 0, metadata !100} ; [ DW_TAG_const_type ]
!100 = metadata !{i32 786468, null, metadata !"unsigned char", null, i32 0, i64 8, i64 8, i64 0, i32 0, i32 8} ; [ DW_TAG_base_type ]
!101 = metadata !{i32 786478, i32 0, metadata !4, metadata !"progAbort", metadata !"progAbort", metadata !"_ZN10LeakTracer9progAbortENS_13abortReason_tE", metadata !5, i32 253, metadata !102, i1 false, i1 false, i32 0, i32 0, null, i32 256, i1 false, null, null, i32 0, metadata !86, i32 253} ; [ DW_TAG_subprogram ]
!102 = metadata !{i32 786453, i32 0, metadata !"", i32 0, i32 0, i64 0, i64 0, i64 0, i32 0, null, metadata !103, i32 0, i32 0} ; [ DW_TAG_subroutine_type ]
!103 = metadata !{null, metadata !85, metadata !3}
!104 = metadata !{i32 786478, i32 0, metadata !4, metadata !"writeLeakReport", metadata !"writeLeakReport", metadata !"_ZN10LeakTracer15writeLeakReportEv", metadata !5, i32 268, metadata !83, i1 false, i1 false, i32 0, i32 0, null, i32 256, i1 false, null, null, i32 0, metadata !86, i32 268} ; [ DW_TAG_subprogram ]
!105 = metadata !{i32 786478, i32 0, metadata !4, metadata !"~LeakTracer", metadata !"~LeakTracer", metadata !"", metadata !5, i32 270, metadata !83, i1 false, i1 false, i32 0, i32 0, null, i32 256, i1 false, null, null, i32 0, metadata !86, i32 270} ; [ DW_TAG_subprogram ]
!106 = metadata !{metadata !107, metadata !108, metadata !109}
!107 = metadata !{i32 786472, metadata !"OVERWRITE_MEMORY", i64 1} ; [ DW_TAG_enumerator ]
!108 = metadata !{i32 786472, metadata !"DELETE_NONEXISTENT", i64 2} ; [ DW_TAG_enumerator ]
!109 = metadata !{i32 786472, metadata !"NEW_DELETE_MISMATCH", i64 4} ; [ DW_TAG_enumerator ]
!110 = metadata !{metadata !111}
!111 = metadata !{i32 0}
!112 = metadata !{metadata !113}
!113 = metadata !{metadata !114, metadata !115, metadata !116, metadata !117, metadata !118, metadata !121, metadata !122, metadata !125, metadata !126, metadata !127, metadata !132, metadata !133, metadata !134, metadata !135, metadata !136, metadata !137}
!114 = metadata !{i32 786478, i32 0, null, metadata !"registerAlloc", metadata !"registerAlloc", metadata !"_ZN10LeakTracer13registerAllocEmb", metadata !5, i32 284, metadata !90, i1 false, i1 true, i32 0, i32 0, null, i32 256, i1 false, i8* (%class.LeakTracer*, i64, i1)* @_ZN10LeakTracer13registerAllocEmb, null, metadata !89, metadata !86, i32 284} ; [ DW_TAG_subprogram ]
!115 = metadata !{i32 786478, i32 0, null, metadata !"hexdump", metadata !"hexdump", metadata !"_ZN10LeakTracer7hexdumpEPKhi", metadata !5, i32 364, metadata !96, i1 false, i1 true, i32 0, i32 0, null, i32 256, i1 false, void (%class.LeakTracer*, i8*, i32)* @_ZN10LeakTracer7hexdumpEPKhi, null, metadata !95, metadata !86, i32 364} ; [ DW_TAG_subprogram ]
!116 = metadata !{i32 786478, i32 0, null, metadata !"registerFree", metadata !"registerFree", metadata !"_ZN10LeakTracer12registerFreeEPvb", metadata !5, i32 380, metadata !93, i1 false, i1 true, i32 0, i32 0, null, i32 256, i1 false, void (%class.LeakTracer*, i8*, i1)* @_ZN10LeakTracer12registerFreeEPvb, null, metadata !92, metadata !86, i32 380} ; [ DW_TAG_subprogram ]
!117 = metadata !{i32 786478, i32 0, null, metadata !"writeLeakReport", metadata !"writeLeakReport", metadata !"_ZN10LeakTracer15writeLeakReportEv", metadata !5, i32 464, metadata !83, i1 false, i1 true, i32 0, i32 0, null, i32 256, i1 false, void (%class.LeakTracer*)* @_ZN10LeakTracer15writeLeakReportEv, null, metadata !104, metadata !86, i32 464} ; [ DW_TAG_subprogram ]
!118 = metadata !{i32 786478, i32 0, metadata !5, metadata !"operator new", metadata !"operator new", metadata !"_Znwm", metadata !5, i32 492, metadata !119, i1 false, i1 true, i32 0, i32 0, null, i32 256, i1 false, i8* (i64)* @_Znwm, null, null, metadata !86, i32 492} ; [ DW_TAG_subprogram ]
!119 = metadata !{i32 786453, i32 0, metadata !"", i32 0, i32 0, i64 0, i64 0, i64 0, i32 0, null, metadata !120, i32 0, i32 0} ; [ DW_TAG_subroutine_type ]
!120 = metadata !{metadata !63, metadata !71}
!121 = metadata !{i32 786478, i32 0, metadata !5, metadata !"operator new[]", metadata !"operator new[]", metadata !"_Znam", metadata !5, i32 497, metadata !119, i1 false, i1 true, i32 0, i32 0, null, i32 256, i1 false, i8* (i64)* @_Znam, null, null, metadata !86, i32 497} ; [ DW_TAG_subprogram ]
!122 = metadata !{i32 786478, i32 0, metadata !5, metadata !"operator delete", metadata !"operator delete", metadata !"_ZdlPv", metadata !5, i32 502, metadata !123, i1 false, i1 true, i32 0, i32 0, null, i32 256, i1 false, void (i8*)* @_ZdlPv, null, null, metadata !86, i32 502} ; [ DW_TAG_subprogram ]
!123 = metadata !{i32 786453, i32 0, metadata !"", i32 0, i32 0, i64 0, i64 0, i64 0, i32 0, null, metadata !124, i32 0, i32 0} ; [ DW_TAG_subroutine_type ]
!124 = metadata !{null, metadata !63}
!125 = metadata !{i32 786478, i32 0, metadata !5, metadata !"operator delete[]", metadata !"operator delete[]", metadata !"_ZdaPv", metadata !5, i32 507, metadata !123, i1 false, i1 true, i32 0, i32 0, null, i32 256, i1 false, void (i8*)* @_ZdaPv, null, null, metadata !86, i32 507} ; [ DW_TAG_subprogram ]
!126 = metadata !{i32 786478, i32 0, metadata !5, metadata !"malloc", metadata !"malloc", metadata !"", metadata !5, i32 511, metadata !119, i1 false, i1 true, i32 0, i32 0, null, i32 256, i1 false, i8* (i64)* @malloc, null, null, metadata !86, i32 511} ; [ DW_TAG_subprogram ]
!127 = metadata !{i32 786478, i32 0, metadata !5, metadata !"read", metadata !"read", metadata !"", metadata !5, i32 532, metadata !128, i1 false, i1 true, i32 0, i32 0, null, i32 256, i1 false, i64 (i32, i8*, i64)* @read, null, null, metadata !86, i32 533} ; [ DW_TAG_subprogram ]
!128 = metadata !{i32 786453, i32 0, metadata !"", i32 0, i32 0, i64 0, i64 0, i64 0, i32 0, null, metadata !129, i32 0, i32 0} ; [ DW_TAG_subroutine_type ]
!129 = metadata !{metadata !130, metadata !8, metadata !63, metadata !71}
!130 = metadata !{i32 786454, null, metadata !"ssize_t", metadata !5, i32 110, i64 0, i64 0, i64 0, i32 0, metadata !131} ; [ DW_TAG_typedef ]
!131 = metadata !{i32 786454, null, metadata !"__ssize_t", metadata !5, i32 180, i64 0, i64 0, i64 0, i32 0, metadata !53} ; [ DW_TAG_typedef ]
!132 = metadata !{i32 786478, i32 0, null, metadata !"progAbort", metadata !"progAbort", metadata !"_ZN10LeakTracer9progAbortENS_13abortReason_tE", metadata !5, i32 253, metadata !102, i1 false, i1 true, i32 0, i32 0, null, i32 256, i1 false, void (%class.LeakTracer*, i32)* @_ZN10LeakTracer9progAbortENS_13abortReason_tE, null, metadata !101, metadata !86, i32 253} ; [ DW_TAG_subprogram ]
!133 = metadata !{i32 786478, i32 0, null, metadata !"initialize", metadata !"initialize", metadata !"_ZN10LeakTracer10initializeEv", metadata !5, i32 144, metadata !83, i1 false, i1 true, i32 0, i32 0, null, i32 256, i1 false, void (%class.LeakTracer*)* @_ZN10LeakTracer10initializeEv, null, metadata !88, metadata !86, i32 144} ; [ DW_TAG_subprogram ]
!134 = metadata !{i32 786478, i32 0, null, metadata !"~LeakTracer", metadata !"~LeakTracer", metadata !"_ZN10LeakTracerD1Ev", metadata !5, i32 270, metadata !83, i1 false, i1 true, i32 0, i32 0, null, i32 256, i1 false, void (%class.LeakTracer*)* @_ZN10LeakTracerD1Ev, null, metadata !105, metadata !86, i32 270} ; [ DW_TAG_subprogram ]
!135 = metadata !{i32 786478, i32 0, null, metadata !"~LeakTracer", metadata !"~LeakTracer", metadata !"_ZN10LeakTracerD2Ev", metadata !5, i32 270, metadata !83, i1 false, i1 true, i32 0, i32 0, null, i32 256, i1 false, void (%class.LeakTracer*)* @_ZN10LeakTracerD2Ev, null, metadata !105, metadata !86, i32 270} ; [ DW_TAG_subprogram ]
!136 = metadata !{i32 786478, i32 0, null, metadata !"LeakTracer", metadata !"LeakTracer", metadata !"_ZN10LeakTracerC1Ev", metadata !5, i32 140, metadata !83, i1 false, i1 true, i32 0, i32 0, null, i32 256, i1 false, void (%class.LeakTracer*)* @_ZN10LeakTracerC1Ev, null, metadata !82, metadata !86, i32 140} ; [ DW_TAG_subprogram ]
!137 = metadata !{i32 786478, i32 0, null, metadata !"LeakTracer", metadata !"LeakTracer", metadata !"_ZN10LeakTracerC2Ev", metadata !5, i32 140, metadata !83, i1 false, i1 true, i32 0, i32 0, null, i32 256, i1 false, void (%class.LeakTracer*)* @_ZN10LeakTracerC2Ev, null, metadata !82, metadata !86, i32 140} ; [ DW_TAG_subprogram ]
!138 = metadata !{metadata !139}
!139 = metadata !{metadata !140, metadata !141, metadata !143}
!140 = metadata !{i32 786484, i32 0, null, metadata !"leakTracer", metadata !"leakTracer", metadata !"_ZL10leakTracer", metadata !5, i32 282, metadata !4, i32 1, i32 1, %class.LeakTracer* @_ZL10leakTracer} ; [ DW_TAG_variable ]
!141 = metadata !{i32 786484, i32 0, metadata !126, metadata !"fptr", metadata !"fptr", metadata !"", metadata !5, i32 513, metadata !142, i32 1, i32 1, i8* (i64)** @_ZZ6mallocE4fptr} ; [ DW_TAG_variable ]
!142 = metadata !{i32 786447, null, metadata !"", null, i32 0, i64 64, i64 64, i64 0, i32 0, metadata !119} ; [ DW_TAG_pointer_type ]
!143 = metadata !{i32 786484, i32 0, metadata !127, metadata !"readfn", metadata !"readfn", metadata !"", metadata !5, i32 534, metadata !144, i32 1, i32 1, i64 (i32, i8*, i64)** @_ZZ4readE6readfn} ; [ DW_TAG_variable ]
!144 = metadata !{i32 786447, null, metadata !"", null, i32 0, i64 64, i64 64, i64 0, i32 0, metadata !128} ; [ DW_TAG_pointer_type ]
!145 = metadata !{metadata !"pthread_barrier_t", metadata !"__size", metadata !"__align.Long"}
!146 = metadata !{metadata !"pthread_condattr_t", metadata !"__size", metadata !"__align.Int"}
!147 = metadata !{metadata !"anon.pthreadtypes.h.117", metadata !"__lock.Int", metadata !"__futex.UInt", metadata !"__total_seq.ULongLong", metadata !"__wakeup_seq.ULongLong", metadata !"__woken_seq.ULongLong", metadata !"__mutex", metadata !"__nwaiters.UInt", metadata !"__broadcast_seq.UInt"}
!148 = metadata !{metadata !"__sigset_t", metadata !"__val"}
!149 = metadata !{metadata !"pthread_mutexattr_t", metadata !"__size", metadata !"__align.Int"}
!150 = metadata !{metadata !"__fsid_t", metadata !"__val"}
!151 = metadata !{metadata !"__pthread_internal_list", metadata !"__prev", metadata !"__next"}
!152 = metadata !{metadata !"pthread_mutex_t", metadata !"__data", metadata !"__size", metadata !"__align.Long"}
!153 = metadata !{metadata !"anon.pthreadtypes.h.153", metadata !"__lock.Int", metadata !"__nr_readers.UInt", metadata !"__readers_wakeup.UInt", metadata !"__writer_wakeup.UInt", metadata !"__nr_readers_queued.UInt", metadata !"__nr_writers_queued.UInt", metadata !"__writer.Int", metadata !"__shared.Int", metadata !"__pad1.ULong", metadata !"__pad2.ULong", metadata !"__flags.UInt"}
!154 = metadata !{metadata !"pthread_rwlock_t", metadata !"__data", metadata !"__size", metadata !"__align.Long"}
!155 = metadata !{metadata !"timeval", metadata !"tv_sec.Long", metadata !"tv_usec.Long"}
!156 = metadata !{metadata !"fd_set", metadata !"fds_bits"}
!157 = metadata !{metadata !"__pthread_mutex_s", metadata !"__lock.Int", metadata !"__count.UInt", metadata !"__owner.Int", metadata !"__nusers.UInt", metadata !"__kind.Int", metadata !"__spins.Int", metadata !"__list"}
!158 = metadata !{metadata !"pthread_attr_t", metadata !"__size", metadata !"__align.Long"}
!159 = metadata !{metadata !"timespec", metadata !"tv_sec.Long", metadata !"tv_nsec.Long"}
!160 = metadata !{metadata !"pthread_cond_t", metadata !"__data", metadata !"__size", metadata !"__align.LongLong"}
!161 = metadata !{metadata !"pthread_rwlockattr_t", metadata !"__size", metadata !"__align.Long"}
!162 = metadata !{metadata !"pthread_barrierattr_t", metadata !"__size", metadata !"__align.Int"}
!163 = metadata !{metadata !"stat64", metadata !"st_dev.ULong", metadata !"st_ino.ULong", metadata !"st_nlink.ULong", metadata !"st_mode.UInt", metadata !"st_uid.UInt", metadata !"st_gid.UInt", metadata !"__pad0.Int", metadata !"st_rdev.ULong", metadata !"st_size.Long", metadata !"st_blksize.Long", metadata !"st_blocks.Long", metadata !"st_atim", metadata !"st_mtim", metadata !"st_ctim", metadata !"__unused"}
!164 = metadata !{metadata !"stat", metadata !"st_dev.ULong", metadata !"st_ino.ULong", metadata !"st_nlink.ULong", metadata !"st_mode.UInt", metadata !"st_uid.UInt", metadata !"st_gid.UInt", metadata !"__pad0.Int", metadata !"st_rdev.ULong", metadata !"st_size.Long", metadata !"st_blksize.Long", metadata !"st_blocks.Long", metadata !"st_atim", metadata !"st_mtim", metadata !"st_ctim", metadata !"__unused"}
!165 = metadata !{metadata !"tm", metadata !"tm_sec.Int", metadata !"tm_min.Int", metadata !"tm_hour.Int", metadata !"tm_mday.Int", metadata !"tm_mon.Int", metadata !"tm_year.Int", metadata !"tm_wday.Int", metadata !"tm_yday.Int", metadata !"tm_isdst.Int", metadata !"tm_gmtoff.Long", metadata !"tm_zone"}
!166 = metadata !{metadata !"__locale_struct", metadata !"__locales", metadata !"__ctype_b", metadata !"__ctype_tolower", metadata !"__ctype_toupper", metadata !"__names"}
!167 = metadata !{metadata !"itimerspec", metadata !"it_interval", metadata !"it_value"}
!168 = metadata !{metadata !"iovec", metadata !"iov_base", metadata !"iov_len.ULong"}
!169 = metadata !{metadata !"flock64", metadata !"l_type.Short", metadata !"l_whence.Short", metadata !"l_start.Long", metadata !"l_len.Long", metadata !"l_pid.Int"}
!170 = metadata !{metadata !"flock", metadata !"l_type.Short", metadata !"l_whence.Short", metadata !"l_start.Long", metadata !"l_len.Long", metadata !"l_pid.Int"}
!171 = metadata !{metadata !"f_owner_ex", metadata !"type", metadata !"pid.Int"}
!172 = metadata !{metadata !"__mbstate_t", metadata !"__count.Int", metadata !"__value"}
!173 = metadata !{metadata !"_IO_cookie_io_functions_t", metadata !"read.FPtr", metadata !"write.FPtr", metadata !"seek.FPtr", metadata !"close.FPtr"}
!174 = metadata !{metadata !"_G_fpos64_t", metadata !"__pos.Long", metadata !"__state"}
!175 = metadata !{metadata !"_IO_marker", metadata !"_next", metadata !"_sbuf", metadata !"_pos.Int"}
!176 = metadata !{metadata !"anon.wchar.h.86", metadata !"__wch.UInt", metadata !"__wchb"}
!177 = metadata !{metadata !"_IO_FILE", metadata !"_flags.Int", metadata !"_IO_read_ptr", metadata !"_IO_read_end", metadata !"_IO_read_base", metadata !"_IO_write_base", metadata !"_IO_write_ptr", metadata !"_IO_write_end", metadata !"_IO_buf_base", metadata !"_IO_buf_end", metadata !"_IO_save_base", metadata !"_IO_backup_base", metadata !"_IO_save_end", metadata !"_markers", metadata !"_chain", metadata !"_fileno.Int", metadata !"_flags2.Int", metadata !"_old_offset.Long", metadata !"_cur_column.UShort", metadata !"_vtable_offset.SChar", metadata !"_shortbuf", metadata !"_lock", metadata !"_offset.Long", metadata !"__pad1", metadata !"__pad2", metadata !"__pad3", metadata !"__pad4", metadata !"__pad5.ULong", metadata !"_mode.Int", metadata !"_unused2"}
!178 = metadata !{metadata !"_G_fpos_t", metadata !"__pos.Long", metadata !"__state"}
!179 = metadata !{metadata !"div_t", metadata !"quot.Int", metadata !"rem.Int"}
!180 = metadata !{metadata !"lldiv_t", metadata !"quot.LongLong", metadata !"rem.LongLong"}
!181 = metadata !{metadata !"drand48_data", metadata !"__x", metadata !"__old_x", metadata !"__c.UShort", metadata !"__init.UShort", metadata !"__a.ULongLong"}
!182 = metadata !{metadata !"random_data", metadata !"fptr", metadata !"rptr", metadata !"state", metadata !"rand_type.Int", metadata !"rand_deg.Int", metadata !"rand_sep.Int", metadata !"end_ptr"}
!183 = metadata !{metadata !"wait", metadata !"w_status.Int", metadata !"__wait_terminated", metadata !"__wait_stopped"}
!184 = metadata !{metadata !"anon.waitstatus.h.70", metadata !"__w_termsig.UInt", metadata !"__w_coredump.UInt", metadata !"__w_retcode.UInt", metadata !".UInt"}
!185 = metadata !{metadata !"anon.waitstatus.h.85", metadata !"__w_stopval.UInt", metadata !"__w_stopsig.UInt", metadata !".UInt"}
!186 = metadata !{metadata !"ldiv_t", metadata !"quot.Long", metadata !"rem.Long"}
!187 = metadata !{metadata !"Dl_serpath", metadata !"dls_name", metadata !"dls_flags.UInt"}
!188 = metadata !{metadata !"Dl_info", metadata !"dli_fname", metadata !"dli_fbase", metadata !"dli_sname", metadata !"dli_saddr"}
!189 = metadata !{metadata !"Dl_serinfo", metadata !"dls_size.ULong", metadata !"dls_cnt.UInt", metadata !"dls_serpath"}
!190 = metadata !{metadata !"Leak", metadata !"addr", metadata !"size.ULong", metadata !"allocAddr", metadata !"type.Bool", metadata !"nextBucket.Int"}
!191 = metadata !{metadata !"LeakTracer", metadata !"newCount.Int", metadata !"leaksCount.Int", metadata !"firstFreeSpot.Int", metadata !"currentAllocated.Int", metadata !"maxAllocated.Int", metadata !"totalAllocations.ULong", metadata !"abortOn.UInt", metadata !"initialized.Bool", metadata !"destroyed.Bool", metadata !"report", metadata !"leaks", metadata !"leakHash"}
!192 = metadata !{i32 142, i32 2, metadata !136, null}
!193 = metadata !{i32 270, i32 16, metadata !134, null}
!194 = metadata !{i32 281, i32 2, metadata !134, null}
!195 = metadata !{i32 285, i32 2, metadata !196, null}
!196 = metadata !{i32 786443, metadata !114, i32 284, i32 58, metadata !5, i32 0} ; [ DW_TAG_lexical_block ]
!197 = metadata !{i32 289, i32 2, metadata !196, null}
!198 = metadata !{metadata !"struct.LeakTracer.destroyed.Bool"}
!199 = metadata !{i32 290, i32 3, metadata !200, null}
!200 = metadata !{i32 786443, metadata !196, i32 289, i32 17, metadata !5, i32 1} ; [ DW_TAG_lexical_block ]
!201 = metadata !{i32 291, i32 10, metadata !200, null}
!202 = metadata !{i32 295, i32 12, metadata !196, null}
!203 = metadata !{i32 297, i32 2, metadata !196, null}
!204 = metadata !{i32 298, i32 3, metadata !205, null}
!205 = metadata !{i32 786443, metadata !196, i32 297, i32 10, metadata !5, i32 2} ; [ DW_TAG_lexical_block ]
!206 = metadata !{i32 319, i32 2, metadata !196, null}
!207 = metadata !{metadata !"struct.LeakTracer.newCount.Int"}
!208 = metadata !{i32 320, i32 2, metadata !196, null}
!209 = metadata !{metadata !"struct.LeakTracer.totalAllocations.ULong"}
!210 = metadata !{i32 321, i32 2, metadata !196, null}
!211 = metadata !{metadata !"struct.LeakTracer.currentAllocated.Int"}
!212 = metadata !{i32 322, i32 2, metadata !196, null}
!213 = metadata !{metadata !"struct.LeakTracer.maxAllocated.Int"}
!214 = metadata !{i32 299, i32 3, metadata !205, null}
!215 = metadata !{i32 304, i32 2, metadata !196, null}
!216 = metadata !{i32 312, i32 9, metadata !196, null}
!217 = metadata !{null}
!218 = metadata !{i32 323, i32 3, metadata !196, null}
!219 = metadata !{i32 326, i32 29, metadata !220, null}
!220 = metadata !{i32 786443, metadata !221, i32 326, i32 3, metadata !5, i32 5} ; [ DW_TAG_lexical_block ]
!221 = metadata !{i32 786443, metadata !222, i32 325, i32 11, metadata !5, i32 4} ; [ DW_TAG_lexical_block ]
!222 = metadata !{i32 786443, metadata !196, i32 325, i32 2, metadata !5, i32 3} ; [ DW_TAG_lexical_block ]
!223 = metadata !{metadata !"struct.LeakTracer.firstFreeSpot.Int"}
!224 = metadata !{metadata !"struct.LeakTracer.leaksCount.Int"}
!225 = metadata !{i32 327, i32 14, metadata !220, null}
!226 = metadata !{i32 329, i32 11, metadata !227, null}
!227 = metadata !{i32 786443, metadata !220, i32 327, i32 67, metadata !5, i32 6} ; [ DW_TAG_lexical_block ]
!228 = metadata !{i32 330, i32 11, metadata !227, null}
!229 = metadata !{i32 331, i32 11, metadata !227, null}
!230 = metadata !{i32 334, i32 31, metadata !227, null}
!231 = metadata !{i32 335, i32 11, metadata !227, null}
!232 = metadata !{i32 347, i32 18, metadata !221, null}
!233 = metadata !{i32 328, i32 11, metadata !227, null}
!234 = metadata !{metadata !"struct.Leak.size.ULong"}
!235 = metadata !{i32 330, i32 5, metadata !227, null}
!236 = metadata !{metadata !"struct.Leak.type.Bool"}
!237 = metadata !{i32 331, i32 58, metadata !227, null}
!238 = metadata !{i32 332, i32 5, metadata !227, null}
!239 = metadata !{i32 335, i32 5, metadata !227, null}
!240 = metadata !{metadata !"struct.Leak.nextBucket.Int"}
!241 = metadata !{i32 336, i32 5, metadata !227, null}
!242 = metadata !{i32 340, i32 5, metadata !227, null}
!243 = metadata !{i32 326, i32 47, metadata !220, null}
!244 = metadata !{i32 346, i32 51, metadata !221, null}
!245 = metadata !{i32 349, i32 3, metadata !221, null}
!246 = metadata !{i32 354, i32 4, metadata !247, null}
!247 = metadata !{i32 786443, metadata !221, i32 353, i32 8, metadata !5, i32 8} ; [ DW_TAG_lexical_block ]
!248 = metadata !{i32 350, i32 4, metadata !249, null}
!249 = metadata !{i32 786443, metadata !221, i32 349, i32 15, metadata !5, i32 7} ; [ DW_TAG_lexical_block ]
!250 = metadata !{i32 351, i32 4, metadata !249, null}
!251 = metadata !{i32 356, i32 4, metadata !247, null}
!252 = metadata !{i32 358, i32 3, metadata !221, null}
!253 = metadata !{i32 360, i32 3, metadata !221, null}
!254 = metadata !{i32 361, i32 2, metadata !221, null}
!255 = metadata !{i32 362, i32 1, metadata !196, null}
!256 = metadata !{i32 146, i32 3, metadata !257, null}
!257 = metadata !{i32 786443, metadata !133, i32 144, i32 20, metadata !5, i32 36} ; [ DW_TAG_lexical_block ]
!258 = metadata !{metadata !"struct.LeakTracer.initialized.Bool"}
!259 = metadata !{i32 150, i32 3, metadata !257, null}
!260 = metadata !{i32 151, i32 3, metadata !257, null}
!261 = metadata !{i32 152, i32 3, metadata !257, null}
!262 = metadata !{i32 153, i32 3, metadata !257, null}
!263 = metadata !{i32 154, i32 3, metadata !257, null}
!264 = metadata !{i32 155, i32 3, metadata !257, null}
!265 = metadata !{i32 156, i32 3, metadata !257, null}
!266 = metadata !{i32 157, i32 3, metadata !257, null}
!267 = metadata !{metadata !"struct.LeakTracer.abortOn.UInt"}
!268 = metadata !{i32 158, i32 3, metadata !257, null}
!269 = metadata !{i32 159, i32 3, metadata !257, null}
!270 = metadata !{i32 160, i32 3, metadata !257, null}
!271 = metadata !{i32 163, i32 26, metadata !257, null}
!272 = metadata !{i32 165, i32 7, metadata !257, null}
!273 = metadata !{i32 166, i32 4, metadata !274, null}
!274 = metadata !{i32 786443, metadata !257, i32 165, i32 36, metadata !5, i32 37} ; [ DW_TAG_lexical_block ]
!275 = metadata !{i32 166, i32 45, metadata !274, null}
!276 = metadata !{i32 167, i32 4, metadata !274, null}
!277 = metadata !{i32 170, i32 3, metadata !274, null}
!278 = metadata !{i32 172, i32 4, metadata !279, null}
!279 = metadata !{i32 786443, metadata !257, i32 171, i32 8, metadata !5, i32 38} ; [ DW_TAG_lexical_block ]
!280 = metadata !{i32 174, i32 18, metadata !257, null}
!281 = metadata !{i32 176, i32 3, metadata !257, null}
!282 = metadata !{i32 177, i32 4, metadata !283, null}
!283 = metadata !{i32 786443, metadata !257, i32 176, i32 21, metadata !5, i32 39} ; [ DW_TAG_lexical_block ]
!284 = metadata !{i32 179, i32 4, metadata !283, null}
!285 = metadata !{i32 180, i32 3, metadata !283, null}
!286 = metadata !{i32 182, i32 16, metadata !287, null}
!287 = metadata !{i32 786443, metadata !257, i32 181, i32 8, metadata !5, i32 40} ; [ DW_TAG_lexical_block ]
!288 = metadata !{i32 183, i32 4, metadata !287, null}
!289 = metadata !{i32 184, i32 13, metadata !287, null}
!290 = metadata !{i32 185, i32 4, metadata !287, null}
!291 = metadata !{i32 186, i32 5, metadata !292, null}
!292 = metadata !{i32 786443, metadata !287, i32 185, i32 26, metadata !5, i32 41} ; [ DW_TAG_lexical_block ]
!293 = metadata !{i32 187, i32 4, metadata !292, null}
!294 = metadata !{i32 191, i32 3, metadata !257, null}
!295 = metadata !{i32 197, i32 3, metadata !257, null}
!296 = metadata !{i32 201, i32 3, metadata !257, null}
!297 = metadata !{i32 206, i32 3, metadata !257, null}
!298 = metadata !{i32 214, i32 3, metadata !257, null}
!299 = metadata !{i32 215, i32 35, metadata !257, null}
!300 = metadata !{i32 216, i32 37, metadata !257, null}
!301 = metadata !{i32 190, i32 14, metadata !257, null}
!302 = metadata !{i32 191, i32 37, metadata !257, null}
!303 = metadata !{i32 193, i32 21, metadata !257, null}
!304 = metadata !{i32 194, i32 3, metadata !257, null}
!305 = metadata !{i32 209, i32 7, metadata !257, null}
!306 = metadata !{i32 210, i32 19, metadata !307, null}
!307 = metadata !{i32 786443, metadata !257, i32 209, i32 33, metadata !5, i32 42} ; [ DW_TAG_lexical_block ]
!308 = metadata !{i32 211, i32 3, metadata !307, null}
!309 = metadata !{i32 215, i32 3, metadata !257, null}
!310 = metadata !{i32 216, i32 3, metadata !257, null}
!311 = metadata !{i32 217, i32 3, metadata !257, null}
!312 = metadata !{i32 217, i32 38, metadata !257, null}
!313 = metadata !{i32 218, i32 3, metadata !257, null}
!314 = metadata !{i32 234, i32 3, metadata !257, null}
!315 = metadata !{i32 236, i32 3, metadata !257, null}
!316 = metadata !{i32 237, i32 2, metadata !257, null}
!317 = metadata !{i32 523, i32 29, metadata !318, null}
!318 = metadata !{i32 786443, metadata !126, i32 511, i32 27, metadata !5, i32 30} ; [ DW_TAG_lexical_block ]
!319 = metadata !{i32 524, i32 2, metadata !318, null}
!320 = metadata !{i32 529, i32 9, metadata !318, null}
!321 = metadata !{i32 525, i32 3, metadata !322, null}
!322 = metadata !{i32 786443, metadata !318, i32 524, i32 22, metadata !5, i32 31} ; [ DW_TAG_lexical_block ]
!323 = metadata !{i32 530, i32 1, metadata !318, null}
!324 = metadata !{i32 528, i32 2, metadata !318, null}
!325 = metadata !{i32 365, i32 2, metadata !326, null}
!326 = metadata !{i32 786443, metadata !115, i32 364, i32 63, metadata !5, i32 9} ; [ DW_TAG_lexical_block ]
!327 = metadata !{i32 367, i32 3, metadata !328, null}
!328 = metadata !{i32 786443, metadata !329, i32 366, i32 32, metadata !5, i32 11} ; [ DW_TAG_lexical_block ]
!329 = metadata !{i32 786443, metadata !326, i32 366, i32 2, metadata !5, i32 10} ; [ DW_TAG_lexical_block ]
!330 = metadata !{i32 369, i32 4, metadata !331, null}
!331 = metadata !{i32 786443, metadata !328, i32 368, i32 21, metadata !5, i32 12} ; [ DW_TAG_lexical_block ]
!332 = metadata !{i32 372, i32 5, metadata !333, null}
!333 = metadata !{i32 786443, metadata !334, i32 370, i32 33, metadata !5, i32 14} ; [ DW_TAG_lexical_block ]
!334 = metadata !{i32 786443, metadata !331, i32 370, i32 4, metadata !5, i32 13} ; [ DW_TAG_lexical_block ]
!335 = metadata !{i32 374, i32 4, metadata !331, null}
!336 = metadata !{i32 366, i32 14, metadata !329, null}
!337 = metadata !{i32 368, i32 3, metadata !328, null}
!338 = metadata !{i32 370, i32 18, metadata !334, null}
!339 = metadata !{i32 371, i32 36, metadata !333, null}
!340 = metadata !{i32 372, i32 28, metadata !333, null}
!341 = metadata !{i32 370, i32 28, metadata !334, null}
!342 = metadata !{i32 375, i32 3, metadata !331, null}
!343 = metadata !{i32 366, i32 27, metadata !329, null}
!344 = metadata !{i32 377, i32 2, metadata !326, null}
!345 = metadata !{i32 378, i32 1, metadata !326, null}
!346 = metadata !{i32 381, i32 2, metadata !347, null}
!347 = metadata !{i32 786443, metadata !116, i32 380, i32 52, metadata !5, i32 15} ; [ DW_TAG_lexical_block ]
!348 = metadata !{i32 383, i32 2, metadata !347, null}
!349 = metadata !{i32 386, i32 2, metadata !347, null}
!350 = metadata !{i32 387, i32 3, metadata !351, null}
!351 = metadata !{i32 786443, metadata !347, i32 386, i32 17, metadata !5, i32 16} ; [ DW_TAG_lexical_block ]
!352 = metadata !{i32 394, i32 32, metadata !347, null}
!353 = metadata !{i32 397, i32 25, metadata !347, null}
!354 = metadata !{i32 398, i32 24, metadata !355, null}
!355 = metadata !{i32 786443, metadata !347, i32 397, i32 73, metadata !5, i32 17} ; [ DW_TAG_lexical_block ]
!356 = metadata !{i32 404, i32 3, metadata !357, null}
!357 = metadata !{i32 786443, metadata !347, i32 402, i32 60, metadata !5, i32 18} ; [ DW_TAG_lexical_block ]
!358 = metadata !{i32 405, i32 9, metadata !357, null}
!359 = metadata !{i32 406, i32 29, metadata !357, null}
!360 = metadata !{i32 407, i32 3, metadata !357, null}
!361 = metadata !{i32 410, i32 13, metadata !357, null}
!362 = metadata !{i32 411, i32 4, metadata !363, null}
!363 = metadata !{i32 786443, metadata !357, i32 410, i32 64, metadata !5, i32 19} ; [ DW_TAG_lexical_block ]
!364 = metadata !{i32 458, i32 2, metadata !347, null}
!365 = metadata !{i32 388, i32 3, metadata !351, null}
!366 = metadata !{i32 395, i32 22, metadata !347, null}
!367 = metadata !{i32 397, i32 2, metadata !347, null}
!368 = metadata !{i32 399, i32 3, metadata !355, null}
!369 = metadata !{i32 402, i32 12, metadata !347, null}
!370 = metadata !{i32 403, i32 24, metadata !357, null}
!371 = metadata !{i32 400, i32 2, metadata !355, null}
!372 = metadata !{i32 408, i32 4, metadata !357, null}
!373 = metadata !{i32 414, i32 11, metadata !363, null}
!374 = metadata !{i32 418, i32 11, metadata !363, null}
!375 = metadata !{i32 415, i32 5, metadata !363, null}
!376 = metadata !{i32 420, i32 4, metadata !363, null}
!377 = metadata !{i32 421, i32 3, metadata !363, null}
!378 = metadata !{i32 423, i32 31, metadata !357, null}
!379 = metadata !{i32 424, i32 4, metadata !380, null}
!380 = metadata !{i32 786443, metadata !357, i32 423, i32 127, metadata !5, i32 20} ; [ DW_TAG_lexical_block ]
!381 = metadata !{i32 427, i32 11, metadata !380, null}
!382 = metadata !{i32 428, i32 5, metadata !380, null}
!383 = metadata !{i32 429, i32 11, metadata !380, null}
!384 = metadata !{i32 430, i32 4, metadata !380, null}
!385 = metadata !{i32 432, i32 36, metadata !380, null}
!386 = metadata !{i32 434, i32 4, metadata !380, null}
!387 = metadata !{i32 435, i32 3, metadata !380, null}
!388 = metadata !{i32 449, i32 41, metadata !357, null}
!389 = metadata !{i32 451, i32 3, metadata !357, null}
!390 = metadata !{i32 452, i32 3, metadata !357, null}
!391 = metadata !{i32 459, i32 3, metadata !347, null}
!392 = metadata !{i32 460, i32 2, metadata !347, null}
!393 = metadata !{i32 461, i32 1, metadata !347, null}
!394 = metadata !{i32 254, i32 3, metadata !395, null}
!395 = metadata !{i32 786443, metadata !132, i32 253, i32 39, metadata !5, i32 34} ; [ DW_TAG_lexical_block ]
!396 = metadata !{i32 255, i32 4, metadata !397, null}
!397 = metadata !{i32 786443, metadata !395, i32 254, i32 25, metadata !5, i32 35} ; [ DW_TAG_lexical_block ]
!398 = metadata !{i32 256, i32 25, metadata !397, null}
!399 = metadata !{i32 257, i32 4, metadata !397, null}
!400 = metadata !{i32 258, i32 4, metadata !397, null}
!401 = metadata !{i32 259, i32 4, metadata !397, null}
!402 = metadata !{i32 262, i32 4, metadata !395, null}
!403 = metadata !{i32 263, i32 2, metadata !395, null}
!404 = metadata !{i32 465, i32 2, metadata !405, null}
!405 = metadata !{i32 786443, metadata !117, i32 464, i32 36, metadata !5, i32 21} ; [ DW_TAG_lexical_block ]
!406 = metadata !{i32 467, i32 2, metadata !405, null}
!407 = metadata !{i32 468, i32 3, metadata !408, null}
!408 = metadata !{i32 786443, metadata !405, i32 467, i32 20, metadata !5, i32 22} ; [ DW_TAG_lexical_block ]
!409 = metadata !{i32 469, i32 3, metadata !408, null}
!410 = metadata !{i32 471, i32 2, metadata !408, null}
!411 = metadata !{i32 472, i32 16, metadata !412, null}
!412 = metadata !{i32 786443, metadata !405, i32 472, i32 2, metadata !5, i32 23} ; [ DW_TAG_lexical_block ]
!413 = metadata !{i32 473, i32 13, metadata !412, null}
!414 = metadata !{i32 475, i32 4, metadata !415, null}
!415 = metadata !{i32 786443, metadata !412, i32 473, i32 66, metadata !5, i32 24} ; [ DW_TAG_lexical_block ]
!416 = metadata !{i32 480, i32 2, metadata !405, null}
!417 = metadata !{i32 476, i32 11, metadata !415, null}
!418 = metadata !{i32 477, i32 18, metadata !415, null}
!419 = metadata !{i32 478, i32 11, metadata !415, null}
!420 = metadata !{i32 479, i32 3, metadata !415, null}
!421 = metadata !{i32 472, i32 34, metadata !412, null}
!422 = metadata !{i32 482, i32 2, metadata !405, null}
!423 = metadata !{i32 484, i32 2, metadata !405, null}
!424 = metadata !{i32 485, i32 3, metadata !425, null}
!425 = metadata !{i32 786443, metadata !405, i32 484, i32 36, metadata !5, i32 25} ; [ DW_TAG_lexical_block ]
!426 = metadata !{i32 487, i32 2, metadata !425, null}
!427 = metadata !{i32 488, i32 1, metadata !405, null}
!428 = metadata !{i32 493, i32 9, metadata !429, null}
!429 = metadata !{i32 786443, metadata !118, i32 492, i32 33, metadata !5, i32 26} ; [ DW_TAG_lexical_block ]
!430 = metadata !{i32 498, i32 9, metadata !431, null}
!431 = metadata !{i32 786443, metadata !121, i32 497, i32 36, metadata !5, i32 27} ; [ DW_TAG_lexical_block ]
!432 = metadata !{i32 503, i32 2, metadata !433, null}
!433 = metadata !{i32 786443, metadata !122, i32 502, i32 32, metadata !5, i32 28} ; [ DW_TAG_lexical_block ]
!434 = metadata !{i32 504, i32 1, metadata !433, null}
!435 = metadata !{i32 508, i32 2, metadata !436, null}
!436 = metadata !{i32 786443, metadata !125, i32 507, i32 34, metadata !5, i32 29} ; [ DW_TAG_lexical_block ]
!437 = metadata !{i32 509, i32 1, metadata !436, null}
!438 = metadata !{i32 537, i32 45, metadata !439, null}
!439 = metadata !{i32 786443, metadata !127, i32 533, i32 1, metadata !5, i32 32} ; [ DW_TAG_lexical_block ]
!440 = metadata !{i32 538, i32 2, metadata !439, null}
!441 = metadata !{i32 539, i32 3, metadata !442, null}
!442 = metadata !{i32 786443, metadata !439, i32 538, i32 24, metadata !5, i32 33} ; [ DW_TAG_lexical_block ]
!443 = metadata !{i32 540, i32 3, metadata !442, null}
!444 = metadata !{i32 542, i32 8, metadata !439, null}
!445 = metadata !{i32 543, i32 2, metadata !439, null}
!446 = metadata !{i32 544, i32 9, metadata !439, null}
!447 = metadata !{i32 545, i32 1, metadata !439, null}
!448 = metadata !{i32 272, i32 14, metadata !449, null}
!449 = metadata !{i32 786443, metadata !135, i32 270, i32 16, metadata !5, i32 43} ; [ DW_TAG_lexical_block ]
!450 = metadata !{i32 273, i32 3, metadata !449, null}
!451 = metadata !{i32 273, i32 37, metadata !449, null}
!452 = metadata !{i32 274, i32 3, metadata !449, null}
!453 = metadata !{i32 275, i32 3, metadata !449, null}
!454 = metadata !{i32 276, i32 3, metadata !449, null}
!455 = metadata !{i32 280, i32 3, metadata !449, null}
!456 = metadata !{i32 281, i32 2, metadata !449, null}
!457 = metadata !{i32 141, i32 3, metadata !458, null}
!458 = metadata !{i32 786443, metadata !137, i32 140, i32 15, metadata !5, i32 44} ; [ DW_TAG_lexical_block ]
!459 = metadata !{i32 142, i32 2, metadata !458, null}
